(dp0
I0
I9
sI1
I9
sI2
I9
sI3
I9
sI4
I9
sI5
I9
sI6
I9
sI7
I9
sI8
I9
sI9
I9
sI10
I9
sI11
I9
sI12
I9
sI13
I9
sI14
I9
sI15
I9
sI16
I9
sI17
I9
sI18
I9
sI19
I9
sI20
I9
sI21
I9
sI22
I9
sI23
I9
sI24
I9
sI25
I9
sI26
I9
sI27
I9
sI28
I9
sI29
I9
sI30
I9
sI31
I9
sI32
I9
sI33
I9
sI34
I9
sI35
I9
sI36
I9
sI37
I9
sI38
I9
sI39
I9
sI40
I9
sI41
I9
sI42
I9
sI43
I9
sI44
I9
sI45
I9
sI46
I9
sI47
I9
sI48
I9
sI49
I9
sI50
I9
sI51
I9
sI52
I9
sI53
I9
sI54
I9
sI55
I9
sI56
I9
sI57
I9
sI58
I9
sI59
I9
sI60
I9
sI61
I9
sI62
I9
sI63
I9
sI64
I9
sI65
I9
sI66
I9
sI67
I9
sI68
I9
sI69
I9
sI70
I9
sI71
I9
sI72
I9
sI73
I9
sI74
I9
sI75
I9
sI76
I9
sI77
I9
sI78
I9
sI79
I9
sI80
I9
sI81
I9
sI82
I9
sI83
I9
sI84
I9
sI85
I9
sI86
I9
sI87
I9
sI88
I9
sI89
I9
sI90
I9
sI91
I9
sI92
I9
sI93
I9
sI94
I9
sI95
I9
sI96
I9
sI97
I9
sI98
I9
sI99
I9
sI100
I9
sI101
I9
sI102
I9
sI103
I9
sI104
I9
sI105
I9
sI106
I9
sI107
I9
sI108
I9
sI109
I9
sI110
I9
sI111
I9
sI112
I9
sI113
I9
sI114
I9
sI115
I9
sI116
I9
sI117
I9
sI118
I9
sI119
I9
sI120
I9
sI121
I9
sI122
I9
sI123
I9
sI124
I9
sI125
I9
sI126
I9
sI127
I9
sI128
I9
sI129
I9
sI130
I9
sI131
I9
sI132
I9
sI133
I9
sI134
I9
sI135
I9
sI136
I9
sI137
I9
sI138
I9
sI139
I9
sI140
I9
sI141
I9
sI142
I9
sI143
I9
sI144
I9
sI145
I9
sI146
I9
sI147
I9
sI148
I9
sI149
I9
sI150
I9
sI151
I9
sI152
I9
sI153
I9
sI154
I9
sI155
I9
sI156
I9
sI157
I9
sI158
I9
sI159
I9
sI160
I9
sI161
I9
sI162
I9
sI163
I9
sI164
I9
sI165
I9
sI166
I9
sI167
I9
sI168
I9
sI169
I10
sI170
I10
sI171
I10
sI172
I10
sI173
I10
sI174
I10
sI175
I10
sI176
I10
sI177
I10
sI178
I10
sI179
I10
sI180
I10
sI181
I10
sI182
I10
sI183
I10
sI184
I10
sI185
I10
sI186
I10
sI187
I10
sI188
I10
sI189
I10
sI190
I10
sI191
I10
sI192
I10
sI193
I10
sI194
I10
sI195
I10
sI196
I10
sI197
I10
sI198
I10
sI199
I10
sI200
I10
sI201
I10
sI202
I10
sI203
I10
sI204
I10
sI205
I10
sI206
I10
sI207
I10
sI208
I10
sI209
I10
sI210
I10
sI211
I10
sI212
I10
sI213
I10
sI214
I10
sI215
I10
sI216
I10
sI217
I10
sI218
I10
sI219
I10
sI220
I10
sI221
I10
sI222
I10
sI223
I10
sI224
I10
sI225
I10
sI226
I10
sI227
I10
sI228
I10
sI229
I10
sI230
I10
sI231
I10
sI232
I10
sI233
I10
sI234
I10
sI235
I10
sI236
I10
sI237
I10
sI238
I10
sI239
I10
sI240
I10
sI241
I10
sI242
I10
sI243
I10
sI244
I10
sI245
I10
sI246
I10
sI247
I10
sI248
I10
sI249
I10
sI250
I10
sI251
I10
sI252
I10
sI253
I10
sI254
I10
sI255
I10
sI256
I10
sI257
I10
sI258
I10
sI259
I10
sI260
I10
sI261
I10
sI262
I10
sI263
I10
sI264
I10
sI265
I10
sI266
I10
sI267
I10
sI268
I10
sI269
I10
sI270
I10
sI271
I10
sI272
I10
sI273
I10
sI274
I10
sI275
I10
sI276
I10
sI277
I10
sI278
I10
sI279
I10
sI280
I10
sI281
I10
sI282
I10
sI283
I10
sI284
I10
sI285
I10
sI286
I10
sI287
I10
sI288
I10
sI289
I10
sI290
I10
sI291
I10
sI292
I10
sI293
I10
sI294
I10
sI295
I10
sI296
I10
sI297
I10
sI298
I10
sI299
I10
sI300
I10
sI301
I10
sI302
I10
sI303
I10
sI304
I10
sI305
I10
sI306
I10
sI307
I10
sI308
I10
sI309
I10
sI310
I10
sI311
I10
sI312
I10
sI313
I10
sI314
I10
sI315
I10
sI316
I10
sI317
I10
sI318
I10
sI319
I10
sI320
I10
sI321
I10
sI322
I10
sI323
I10
sI324
I10
sI325
I10
sI326
I10
sI327
I10
sI328
I10
sI329
I10
sI330
I10
sI331
I10
sI332
I10
sI333
I10
sI334
I10
sI335
I10
sI336
I10
sI337
I10
sI338
I10
sI339
I10
sI340
I10
sI341
I10
sI342
I10
sI343
I10
sI344
I10
sI345
I10
sI346
I10
sI347
I10
sI348
I10
sI349
I10
sI350
I10
sI351
I10
sI352
I10
sI353
I10
sI354
I10
sI355
I10
sI356
I10
sI357
I10
sI358
I10
sI359
I10
sI360
I10
sI361
I10
sI362
I10
sI363
I10
sI364
I10
sI365
I10
sI366
I10
sI367
I10
sI368
I10
sI369
I10
sI370
I10
sI371
I10
sI372
I10
sI373
I10
sI374
I10
sI375
I10
sI376
I10
sI377
I10
sI378
I10
sI379
I10
sI380
I10
sI381
I10
sI382
I10
sI383
I10
sI384
I10
sI385
I10
sI386
I10
sI387
I10
sI388
I10
sI389
I10
sI390
I10
sI391
I10
sI392
I10
sI393
I10
sI394
I10
sI395
I10
sI396
I10
sI397
I10
sI398
I10
sI399
I10
sI400
I10
sI401
I10
sI402
I10
sI403
I10
sI404
I10
sI405
I10
sI406
I10
sI407
I10
sI408
I10
sI409
I10
sI410
I10
sI411
I10
sI412
I10
sI413
I10
sI414
I10
sI415
I10
sI416
I10
sI417
I10
sI418
I10
sI419
I10
sI420
I10
sI421
I10
sI422
I10
sI423
I10
sI424
I10
sI425
I10
sI426
I10
sI427
I10
sI428
I10
sI429
I10
sI430
I10
sI431
I10
sI432
I10
sI433
I10
sI434
I10
sI435
I10
sI436
I10
sI437
I10
sI438
I10
sI439
I10
sI440
I10
sI441
I10
sI442
I10
sI443
I10
sI444
I10
sI445
I10
sI446
I10
sI447
I10
sI448
I10
sI449
I10
sI450
I10
sI451
I10
sI452
I10
sI453
I10
sI454
I10
sI455
I10
sI456
I10
sI457
I10
sI458
I10
sI459
I10
sI460
I10
sI461
I10
s.