(lp0
I6153
aI6154
aI6155
aI6156
aI6157
aI6159
aI6160
aI6161
aI6162
aI6163
aI6164
aI6165
aI6166
aI6167
aI6168
aI6169
aI6170
aI6171
aI6172
aI6173
aI6174
aI6175
aI6176
aI6178
aI6180
aI6181
aI6182
aI6183
aI6184
aI6185
aI6186
aI6187
aI6189
aI6190
aI6191
aI6192
aI6193
aI6194
aI6195
aI6196
aI6197
aI6198
aI6200
aI6201
aI6202
aI6203
aI6204
aI6205
aI6206
aI6207
aI6208
aI6209
aI6210
aI6211
aI6212
aI6213
aI6214
aI6216
aI6217
aI6218
aI6219
aI6220
aI6221
aI6222
aI6223
aI6224
aI6225
aI6226
aI6227
aI6228
aI6229
aI6230
aI6231
aI6232
aI6233
aI6234
aI6235
aI6236
aI6237
aI6238
aI6239
aI6240
aI6241
aI6242
aI6243
aI6244
aI6245
aI6247
aI6248
aI6249
aI6251
aI6252
aI6253
aI6254
aI6256
aI6257
aI6259
aI6260
aI6261
aI6262
aI6263
aI6265
aI6266
aI6267
aI6268
aI6270
aI6271
aI6272
aI6273
aI6274
aI6276
aI6277
aI6278
aI6279
aI6280
aI6281
aI6283
aI6284
aI6286
aI6287
aI6288
aI6289
aI6291
aI6293
aI6294
aI6295
aI6296
aI6297
aI6299
aI6300
aI6301
aI6302
aI6304
aI6305
aI6306
aI6307
aI6308
aI6309
aI6310
aI6311
aI6313
aI6314
aI6315
aI6317
aI6318
aI6319
aI6320
aI6321
aI6323
aI6324
aI6327
aI6328
aI6329
aI6330
aI6331
aI6332
aI6333
aI6334
aI6335
aI6336
aI6337
aI6339
aI6340
aI6341
aI6342
aI6344
aI6345
aI6346
aI6347
aI6348
aI6350
aI6351
aI6352
aI6353
aI6354
aI6355
aI6357
aI6358
aI6359
aI6360
aI6361
aI6362
aI6363
aI6364
aI6365
aI6366
aI6367
aI6368
aI6369
aI6370
aI6371
aI6372
aI6375
aI6376
aI6377
aI6378
aI6379
aI6380
aI6381
aI6382
aI6383
aI6386
aI6387
aI6388
aI6389
aI6390
aI6392
aI6393
aI6394
aI6395
aI6396
aI6398
aI6399
aI6400
aI6401
aI6402
aI6403
aI6404
aI6406
aI6408
aI6409
aI6411
aI6412
aI6414
aI6415
aI6416
aI6417
aI6418
aI6420
aI6421
aI6422
aI6423
aI6424
aI6425
aI6426
aI6427
aI6428
aI6429
aI6430
aI6431
aI6432
aI6433
aI6434
aI6435
aI6436
aI6439
aI6440
aI6441
aI6442
aI6444
aI6445
aI6446
aI6448
aI6451
aI6452
aI6453
aI6454
aI6455
aI6457
aI6458
aI6459
aI6460
aI6461
aI6462
aI6463
aI6464
aI6465
aI6466
aI6468
aI6469
aI6470
aI6471
aI6472
aI6474
aI6475
aI6477
aI6478
aI6479
aI6480
aI6481
aI6483
aI6484
aI6485
aI6486
aI6487
aI6488
aI6490
aI6491
aI6492
aI6493
aI6494
aI6495
aI6496
aI6497
aI6499
aI6500
aI6501
aI6504
aI6505
aI6506
aI6507
aI6508
aI6510
aI6511
aI6512
aI6513
aI6516
aI6517
aI6518
aI6519
aI6520
aI6522
aI6523
aI6524
aI6525
aI6526
aI6527
aI6528
aI6529
aI6530
aI6531
aI6533
aI6534
aI6536
aI6537
aI6539
aI6541
aI6542
aI6544
aI6545
aI6546
aI6547
aI6551
aI6553
aI6554
aI6555
aI6556
aI6557
aI6558
aI6559
aI6560
aI6562
aI6563
aI6564
aI6565
aI6566
aI6567
aI6568
aI6569
aI6570
aI6571
aI6572
aI6573
aI6574
aI6575
aI6576
aI6577
aI6578
aI6579
aI6580
aI6581
aI6582
aI6584
aI6585
aI6587
aI6588
aI6589
aI6590
aI6591
aI6592
aI6593
aI6594
aI6595
aI6596
aI6597
aI6598
aI6599
aI6600
aI6602
aI6603
aI6604
aI6606
aI6607
aI6608
aI6609
aI6611
aI6612
aI6613
aI6615
aI6616
aI6617
aI6618
aI6621
aI6622
aI6623
aI6624
aI6625
aI6627
aI6628
aI6629
aI6630
aI6631
aI6632
aI6633
aI6634
aI6635
aI6636
aI6640
aI6641
aI6642
aI6644
aI6645
aI6646
aI6647
aI6648
aI6650
aI6651
aI6652
aI6653
aI6654
aI6655
aI6657
aI6658
aI6659
aI6660
aI6662
aI6663
aI6664
aI6665
aI6666
aI6667
aI6669
aI6670
aI6672
aI6674
aI6675
aI6677
aI6679
aI6680
aI6681
aI6683
aI6684
aI6685
aI6686
aI6687
aI6688
aI6689
aI6690
aI6691
aI6692
aI6693
aI6694
aI6695
aI6696
aI6698
aI6699
aI6700
aI6702
aI6703
aI6705
aI6706
aI6708
aI6709
aI6710
aI6711
aI6712
aI6713
aI6714
aI6715
aI6716
aI6717
aI6718
aI6720
aI6721
aI6722
aI6723
aI6724
aI6726
aI6727
aI6728
aI6729
aI6730
aI6731
aI6732
aI6733
aI6734
aI6735
aI6736
aI6738
aI6739
aI6740
aI6741
aI6742
aI6744
aI6745
aI6746
aI6749
aI6750
aI6751
aI6752
aI6754
aI6756
aI6757
aI6758
aI6759
aI6760
aI6761
aI6762
aI6763
aI6764
aI6766
aI6769
aI6770
aI6771
aI6772
aI6774
aI6775
aI6776
aI6777
aI6778
aI6779
aI6780
aI6781
aI6782
aI6784
aI6785
aI6786
aI6787
aI6788
aI6789
aI6791
aI6792
aI6793
aI6795
aI6796
aI6798
aI6799
aI6800
aI6802
aI6804
aI6805
aI6806
aI6807
aI6808
aI6810
aI6811
aI6812
aI6813
aI6814
aI6815
aI6816
aI6817
aI6818
aI6821
aI6822
aI6823
aI6824
aI6825
aI6826
aI6829
aI6830
aI6831
aI6832
aI6833
aI6835
aI6836
aI6837
aI6838
aI6839
aI6840
aI6841
aI6842
aI6843
aI6844
aI6845
aI6846
aI6847
aI6848
aI6849
aI6850
aI6851
aI6854
aI6855
aI6856
aI6857
aI6860
aI6861
aI6863
aI6864
aI6865
aI6866
aI6869
aI6870
aI6872
aI6873
aI6876
aI6877
aI6878
aI6880
aI6881
aI6882
aI6883
aI6886
aI6887
aI6888
aI6889
aI6890
aI6891
aI6892
aI6893
aI6894
aI6895
aI6896
aI6897
aI6898
aI6899
aI6900
aI6902
aI6903
aI6904
aI6905
aI6906
aI6909
aI6910
aI6911
aI6912
aI6913
aI6914
aI6915
aI6916
aI6919
aI6920
aI6921
aI6922
aI6923
aI6924
aI6925
aI6926
aI6927
aI6928
aI6929
aI6930
aI6931
aI6932
aI6933
aI6934
aI6936
aI6937
aI6938
aI6939
aI6940
aI6941
aI6944
aI6945
aI6946
aI6947
aI6948
aI6949
aI6950
aI6951
aI6952
aI6953
aI6954
aI6955
aI6956
aI6957
aI6958
aI6959
aI6960
aI6961
aI6962
aI6963
aI6964
aI6965
aI6966
aI6967
aI6968
aI6969
aI6970
aI6971
aI6972
aI6973
aI6974
aI6975
aI6976
aI6977
aI6978
aI6981
aI6982
aI6985
aI6986
aI6987
aI6988
aI6989
aI6991
aI6992
aI6993
aI6994
aI6995
aI6996
aI6997
aI6998
aI6999
aI7000
aI7001
aI7002
aI7003
aI7004
aI7005
aI7006
aI7008
aI7010
aI7011
aI7012
aI7013
aI7014
aI7015
aI7016
aI7017
aI7018
aI7019
aI7021
aI7024
aI7027
aI7028
aI7031
aI7032
aI7033
aI7034
aI7035
aI7036
aI7037
aI7038
aI7039
aI7040
aI7043
aI7045
aI7046
aI7048
aI7051
aI7052
aI7053
aI7055
aI7056
aI7059
aI7060
aI7061
aI7062
aI7063
aI7065
aI7066
aI7067
aI7068
aI7069
aI7070
aI7072
aI7074
aI7075
aI7076
aI7077
aI7078
aI7079
aI7081
aI7082
aI7083
aI7084
aI7085
aI7087
aI7088
aI7090
aI7091
aI7093
aI7094
aI7095
aI7096
aI7097
aI7098
aI7099
aI7100
aI7101
aI7103
aI7104
aI7105
aI7106
aI7107
aI7109
aI7110
aI7111
aI7112
aI7113
aI7115
aI7116
aI7117
aI7118
aI7120
aI7121
aI7122
aI7123
aI7124
aI7125
aI7127
aI7128
aI7129
aI7130
aI7131
aI7132
aI7133
aI7134
aI7135
aI7137
aI7138
aI7139
aI7140
aI7141
aI7142
aI7143
aI7144
aI7145
aI7146
aI7147
aI7148
aI7149
aI7150
aI7151
aI7152
aI7153
aI7154
aI7155
aI7157
aI7158
aI7159
aI7160
aI7163
aI7164
aI7165
aI7166
aI7167
aI7169
aI7171
aI7172
aI7173
aI7174
aI7175
aI7176
aI7177
aI7178
aI7179
aI7180
aI7181
aI7182
aI7183
aI7185
aI7186
aI7187
aI7188
aI7189
aI7190
aI7191
aI7192
aI7193
aI7194
aI7195
aI7196
aI7197
aI7198
aI7199
aI7200
aI7201
aI7202
aI7203
aI7204
aI7205
aI7206
aI7207
aI7209
aI7210
aI7211
aI7212
aI7213
aI7214
aI7215
aI7216
aI7217
aI7218
aI7219
aI7220
aI7221
aI7223
aI7224
aI7227
aI7228
aI7229
aI7230
aI7231
aI7232
aI7233
aI7234
aI7235
aI7236
aI7237
aI7238
aI7239
aI7240
aI7241
aI7242
aI7243
aI7244
aI7245
aI7246
aI7247
aI7249
aI7250
aI7251
aI7252
aI7253
aI7255
aI7257
aI7258
aI7259
aI7260
aI7261
aI7262
aI7263
aI7265
aI7266
aI7267
aI7268
aI7269
aI7270
aI7271
aI7273
aI7274
aI7275
aI7276
aI7278
aI7279
aI7281
aI7282
aI7283
aI7284
aI7285
aI7286
aI7287
aI7288
aI7290
aI7291
aI7292
aI7293
aI7294
aI7295
aI7297
aI7298
aI7299
aI7300
aI7301
aI7302
aI7303
aI7304
aI7305
aI7306
aI7307
aI7308
aI7310
aI7312
aI7313
aI7314
aI7315
aI7316
aI7318
aI7319
aI7321
aI7322
aI7323
aI7324
aI7325
aI7327
aI7328
aI7329
aI7330
aI7331
aI7332
aI7333
aI7334
aI7335
aI7336
aI7337
aI7338
aI7339
aI7340
aI7341
aI7342
aI7343
aI7346
aI7348
aI7349
aI7351
aI7352
aI7353
aI7354
aI7355
aI7356
aI7357
aI7358
aI7359
aI7360
aI7361
aI7362
aI7363
aI7364
aI7365
aI7366
aI7367
aI7368
aI7369
aI7370
aI7373
aI7375
aI7376
aI7377
aI7378
aI7379
aI7381
aI7382
aI7383
aI7384
aI7385
aI7386
aI7387
aI7388
aI7390
aI7391
aI7392
aI7393
aI7394
aI7395
aI7396
aI7397
aI7398
aI7399
aI7400
aI7401
aI7403
aI7404
aI7406
aI7407
aI7408
aI7409
aI7410
aI7411
aI7412
aI7413
aI7414
aI7415
aI7416
aI7417
aI7418
aI7419
aI7420
aI7421
aI7424
aI7425
aI7426
aI7428
aI7429
aI7430
aI7431
aI7432
aI7433
aI7434
aI7435
aI7436
aI7437
aI7438
aI7439
aI7440
aI7441
aI7442
aI7443
aI7444
aI7445
aI7446
aI7447
aI7448
aI7449
aI7450
aI7451
aI7452
aI7453
aI7454
aI7455
aI7456
aI7457
aI7459
aI7460
aI7461
aI7462
aI7464
aI7465
aI7466
aI7468
aI7469
aI7470
aI7471
aI7472
aI7473
aI7474
aI7476
aI7477
aI7478
aI7479
aI7480
aI7481
aI7482
aI7484
aI7485
aI7486
aI7487
aI7488
aI7489
aI7490
aI7493
aI7494
aI7495
aI7496
aI7497
aI7498
aI7499
aI7500
aI7501
aI7502
aI7504
aI7505
aI7506
aI7507
aI7508
aI7510
aI7511
aI7512
aI7514
aI7517
aI7518
aI7519
aI7520
aI7521
aI7522
aI7523
aI7524
aI7525
aI7526
aI7528
aI7529
aI7530
aI7531
aI7532
aI7533
aI7534
aI7535
aI7536
aI7537
aI7538
aI7539
aI7540
aI7541
aI7542
aI7543
aI7546
aI7547
aI7548
aI7550
aI7551
aI7552
aI7553
aI7554
aI7555
aI7556
aI7557
aI7558
aI7559
aI7560
aI7562
aI7563
aI7565
aI7566
aI7567
aI7569
aI7570
aI7571
aI7572
aI7573
aI7576
aI7577
aI7578
aI7579
aI7580
aI7582
aI7583
aI7584
aI7585
aI7586
aI7587
aI7588
aI7589
aI7590
aI7591
aI7593
aI7594
aI7595
aI7596
aI7597
aI7598
aI7599
aI7600
aI7601
aI7602
aI7604
aI7605
aI7606
aI7607
aI7608
aI7609
aI7610
aI7611
aI7612
aI7613
aI7614
aI7615
aI7617
aI7618
aI7619
aI7620
aI7621
aI7622
aI7624
aI7625
aI7626
aI7627
aI7628
aI7629
aI7630
aI7632
aI7633
aI7634
aI7635
aI7636
aI7637
aI7638
aI7639
aI7640
aI7641
aI7642
aI7643
aI7644
aI7646
aI7647
aI7648
aI7649
aI7650
aI7652
aI7653
aI7654
aI7655
aI7656
aI7657
aI7658
aI7659
aI7660
aI7661
aI7662
aI7663
aI7664
aI7665
aI7666
aI7667
aI7668
aI7669
aI7670
aI7671
aI7672
aI7674
aI7675
aI7676
aI7677
aI7678
aI7680
aI7681
aI7682
aI7683
aI7684
aI7685
aI7686
aI7687
aI7689
aI7690
aI7692
aI7693
aI7694
aI7695
aI7696
aI7697
aI7698
aI7699
aI7700
aI7701
aI7702
aI7703
aI7704
aI7705
aI7706
aI7708
aI7709
aI7711
aI7713
aI7714
aI7715
aI7717
aI7718
aI7719
aI7720
aI7721
aI7722
aI7723
aI7724
aI7725
aI7726
aI7727
aI7728
aI7729
aI7730
aI7731
aI7732
aI7733
aI7734
aI7735
aI7736
aI7738
aI7741
aI7742
aI7743
aI7744
aI7745
aI7746
aI7747
aI7749
aI7750
aI7751
aI7752
aI7753
aI7754
aI7756
aI7757
aI7758
aI7759
aI7762
aI7763
aI7764
aI7765
aI7766
aI7767
aI7768
aI7769
aI7770
aI7771
aI7772
aI7774
aI7775
aI7776
aI7777
aI7778
aI7779
aI7780
aI7781
aI7782
aI7783
aI7784
aI7786
aI7787
aI7788
aI7789
aI7790
aI7791
aI7792
aI7793
aI7794
aI7795
aI7796
aI7797
aI7798
aI7800
aI7801
aI7802
aI7804
aI7805
aI7806
aI7807
aI7808
aI7809
aI7810
aI7811
aI7812
aI7813
aI7814
aI7816
aI7817
aI7818
aI7819
aI7820
aI7821
aI7822
aI7823
aI7825
aI7826
aI7828
aI7829
aI7830
aI7831
aI7832
aI7835
aI7836
aI7837
aI7838
aI7839
aI7840
aI7841
aI7842
aI7843
aI7844
aI7845
aI7846
aI7847
aI7848
aI7849
aI7850
aI7851
aI7852
aI7853
aI7854
aI7855
aI7856
aI7857
aI7858
aI7859
aI7860
aI7861
aI7862
aI7863
aI7865
aI7866
aI7867
aI7868
aI7869
aI7870
aI7871
aI7872
aI7873
aI7874
aI7876
aI7878
aI7879
aI7880
aI7881
aI7882
aI7883
aI7884
aI7886
aI7887
aI7888
aI7889
aI7890
aI7891
aI7892
aI7893
aI7895
aI7896
aI7897
aI7898
aI7899
aI7900
aI7901
aI7902
aI7904
aI7905
aI7906
aI7907
aI7908
aI7909
aI7910
aI7911
aI7913
aI7914
aI7915
aI7917
aI7918
aI7919
aI7920
aI7921
aI7923
aI7924
aI7925
aI7926
aI7927
aI7929
aI7930
aI7931
aI7932
aI7933
aI7934
aI7935
aI7936
aI7937
aI7938
aI7939
aI7940
aI7941
aI7942
aI7943
aI7944
aI7945
aI7946
aI7948
aI7949
aI7950
aI7951
aI7952
aI7953
aI7954
aI7955
aI7956
aI7957
aI7958
aI7959
aI7960
aI7961
aI7962
aI7963
aI7964
aI7965
aI7966
aI7967
aI7968
aI7969
aI7970
aI7971
aI7972
aI7973
aI7974
aI7975
aI7976
aI7977
aI7978
aI7979
aI7980
aI7981
aI7983
aI7984
aI7985
aI7986
aI7987
aI7988
aI7989
aI7990
aI7991
aI7992
aI7993
aI7994
aI7995
aI7996
aI7997
aI7999
aI8000
aI8001
aI8002
aI8003
aI8004
aI8005
aI8007
aI8008
aI8009
aI8010
aI8011
aI8012
aI8013
aI8014
aI8015
aI8016
aI8017
aI8018
aI8020
aI8021
aI8022
aI8023
aI8024
aI8025
aI8026
aI8029
aI8030
aI8031
aI8032
aI8033
aI8034
aI8035
aI8036
aI8038
aI8039
aI8040
aI8041
aI8042
aI8043
aI8044
aI8045
aI8046
aI8048
aI8050
aI8053
aI8054
aI8055
aI8056
aI8059
aI8060
aI8061
aI8062
aI8063
aI8065
aI8066
aI8068
aI8069
aI8070
aI8071
aI8072
aI8073
aI8074
aI8075
aI8076
aI8077
aI8078
aI8079
aI8080
aI8081
aI8083
aI8084
aI8085
aI8087
aI8089
aI8090
aI8091
aI8092
aI8093
aI8094
aI8096
aI8097
aI8098
aI8101
aI8102
aI8104
aI8105
aI8106
aI8107
aI8108
aI8109
aI8110
aI8111
aI8113
aI8114
aI8115
aI8116
aI8117
aI8118
aI8119
aI8121
aI8122
aI8123
aI8124
aI8125
aI8126
aI8127
aI8128
aI8129
aI8130
aI8132
aI8133
aI8134
aI8135
aI8137
aI8138
aI8139
aI8140
aI8141
aI8142
aI8143
aI8145
aI8146
aI8148
aI8149
aI8151
aI8153
aI8154
aI8155
aI8156
aI8157
aI8158
aI8159
aI8161
aI8162
aI8163
aI8164
aI8165
aI8166
aI8167
aI8169
aI8170
aI8171
aI8172
aI8173
aI8175
aI8176
aI8177
aI8178
aI8179
aI8180
aI8181
aI8182
aI8183
aI8184
aI8185
aI8186
aI8187
aI8188
aI8189
aI8190
aI8191
aI8193
aI8194
aI8195
aI8196
aI8198
aI8199
aI8200
aI8202
aI8203
aI8204
aI8205
aI8206
aI8207
aI8208
aI8209
aI8211
aI8212
a.