(dp0
L8193L
I9
sL8195L
I4
sL8196L
I7
sL5L
I5
sL8198L
I6
sL8199L
I6
sL8L
I4
sL9L
I10
sL11L
I8
sL8204L
I22
sL8205L
I22
sL8207L
I8
sL8208L
I7
sL17L
I5
sL8212L
I7
sL21L
I7
sL23L
I5
sL25L
I5
sL27L
I4
sL8221L
I4
sL30L
I5
sL31L
I6
sL9563L
I8
sL8229L
I20
sL38L
I9
sL39L
I4
sL40L
I12
sL8234L
I10
sL43L
I8
sL44L
I5
sL45L
I7
sL8238L
I9
sL47L
I5
sL8240L
I20
sL49L
I8
sL50L
I5
sL8243L
I27
sL53L
I6
sL8246L
I9
sL56L
I6
sL8250L
I8
sL59L
I5
sL60L
I6
sL8253L
I14
sL62L
I4
sL8255L
I15
sL64L
I4
sL8257L
I10
sL66L
I4
sL8203L
I22
sL8260L
I9
sL8261L
I6
sL8264L
I9
sL74L
I7
sL75L
I6
sL76L
I6
sL77L
I20
sL8270L
I15
sL79L
I5
sL80L
I11
sL81L
I6
sL83L
I5
sL8276L
I39
sL88L
I4
sL89L
I5
sL8282L
I17
sL8284L
I15
sL93L
I5
sL8287L
I8
sL96L
I10
sL97L
I4
sL98L
I4
sL8292L
I10
sL101L
I19
sL8294L
I5
sL8209L
I5
sL8296L
I4
sL105L
I20
sL106L
I5
sL8299L
I14
sL108L
I6
sL8301L
I6
sL8664L
I12
sL8304L
I4
sL113L
I4
sL9551L
I8
sL8307L
I4
sL116L
I9
sL8309L
I14
sL118L
I8
sL119L
I9
sL8312L
I16
sL121L
I4
sL8315L
I4
sL124L
I4
sL8317L
I11
sL126L
I5
sL8213L
I4
sL130L
I6
sL8323L
I4
sL8324L
I5
sL9831L
I7
sL8327L
I11
sL136L
I15
sL137L
I7
sL8330L
I4
sL139L
I6
sL140L
I4
sL141L
I5
sL142L
I7
sL9581L
I7
sL144L
I5
sL8337L
I14
sL146L
I7
sL8339L
I12
sL149L
I6
sL150L
I4
sL8217L
I4
sL154L
I8
sL155L
I10
sL8349L
I4
sL158L
I5
sL159L
I23
sL160L
I5
sL161L
I6
sL162L
I5
sL163L
I4
sL164L
I4
sL8358L
I8
sL167L
I5
sL8360L
I26
sL170L
I15
sL8364L
I21
sL9586L
I8
sL8366L
I24
sL8367L
I4
sL8369L
I17
sL178L
I13
sL179L
I10
sL181L
I5
sL182L
I18
sL8375L
I25
sL184L
I6
sL8377L
I4
sL187L
I5
sL188L
I13
sL189L
I12
sL8382L
I4
sL191L
I11
sL192L
I5
sL193L
I25
sL8386L
I5
sL195L
I5
sL8388L
I5
sL8389L
I18
sL198L
I6
sL8391L
I5
sL8393L
I12
sL9591L
I7
sL204L
I13
sL206L
I4
sL209L
I12
sL8404L
I7
sL213L
I13
sL214L
I4
sL8407L
I4
sL8408L
I5
sL217L
I12
sL218L
I17
sL219L
I4
sL220L
I4
sL222L
I9
sL8415L
I18
sL224L
I7
sL225L
I9
sL227L
I10
sL8421L
I5
sL8423L
I4
sL8424L
I4
sL9030L
I20
sL236L
I5
sL8430L
I4
sL8431L
I4
sL240L
I4
sL241L
I9
sL242L
I8
sL243L
I9
sL244L
I5
sL245L
I6
sL8438L
I6
sL8439L
I10
sL248L
I4
sL249L
I7
sL251L
I6
sL9482L
I5
sL254L
I5
sL256L
I6
sL8235L
I4
sL8452L
I4
sL261L
I14
sL262L
I4
sL8455L
I19
sL8236L
I11
sL266L
I11
sL269L
I6
sL8462L
I4
sL8463L
I10
sL8464L
I18
sL273L
I35
sL274L
I5
sL275L
I10
sL276L
I4
sL8472L
I4
sL281L
I13
sL282L
I4
sL8239L
I6
sL8476L
I4
sL8477L
I5
sL286L
I6
sL287L
I20
sL288L
I5
sL289L
I4
sL291L
I4
sL8484L
I6
sL294L
I9
sL295L
I4
sL8488L
I5
sL297L
I8
sL298L
I4
sL299L
I21
sL8492L
I6
sL301L
I5
sL302L
I5
sL303L
I5
sL8496L
I4
sL305L
I11
sL306L
I4
sL307L
I7
sL8502L
I19
sL311L
I8
sL312L
I5
sL8505L
I14
sL8506L
I4
sL315L
I5
sL317L
I6
sL318L
I7
sL8245L
I7
sL320L
I7
sL321L
I7
sL322L
I12
sL323L
I24
sL325L
I4
sL326L
I4
sL329L
I7
sL330L
I5
sL8523L
I29
sL8525L
I4
sL9613L
I5
sL336L
I18
sL337L
I10
sL338L
I9
sL10143L
I5
sL341L
I10
sL342L
I17
sL8536L
I21
sL345L
I12
sL347L
I14
sL8541L
I4
sL350L
I6
sL352L
I7
sL353L
I10
sL9559L
I5
sL355L
I10
sL8548L
I10
sL357L
I16
sL8551L
I9
sL8552L
I21
sL361L
I7
sL362L
I7
sL8556L
I7
sL365L
I7
sL8558L
I7
sL8559L
I12
sL8560L
I4
sL370L
I7
sL8563L
I8
sL372L
I4
sL8254L
I5
sL374L
I9
sL377L
I9
sL378L
I6
sL8571L
I7
sL380L
I39
sL382L
I6
sL9621L
I11
sL8576L
I4
sL8577L
I6
sL8578L
I15
sL8579L
I19
sL388L
I6
sL8581L
I5
sL390L
I8
sL8893L
I12
sL392L
I7
sL394L
I15
sL9277L
I8
sL8588L
I10
sL398L
I5
sL399L
I18
sL400L
I5
sL401L
I21
sL402L
I4
sL8596L
I5
sL405L
I5
sL406L
I9
sL407L
I4
sL8600L
I5
sL409L
I5
sL410L
I5
sL8603L
I4
sL8606L
I5
sL8607L
I5
sL416L
I4
sL8609L
I6
sL419L
I5
sL8612L
I4
sL8613L
I6
sL422L
I9
sL423L
I6
sL424L
I6
sL9144L
I26
sL426L
I6
sL10107L
I12
sL8620L
I9
sL429L
I5
sL8622L
I5
sL432L
I43
sL433L
I5
sL8626L
I4
sL436L
I11
sL437L
I6
sL439L
I5
sL440L
I11
sL441L
I5
sL442L
I6
sL9631L
I5
sL9562L
I4
sL8638L
I5
sL447L
I15
sL448L
I4
sL449L
I16
sL450L
I8
sL451L
I6
sL8645L
I10
sL454L
I5
sL455L
I17
sL8648L
I25
sL457L
I4
sL8651L
I13
sL9634L
I5
sL462L
I9
sL463L
I11
sL464L
I13
sL8657L
I16
sL466L
I13
sL467L
I4
sL468L
I19
sL8663L
I4
sL472L
I5
sL473L
I18
sL8666L
I5
sL475L
I9
sL8668L
I14
sL8669L
I9
sL478L
I8
sL479L
I8
sL482L
I7
sL485L
I16
sL486L
I4
sL487L
I24
sL488L
I8
sL490L
I6
sL491L
I8
sL492L
I11
sL8685L
I9
sL495L
I6
sL8688L
I19
sL8689L
I6
sL498L
I13
sL499L
I21
sL500L
I6
sL8693L
I12
sL8200L
I18
sL8695L
I5
sL504L
I5
sL505L
I13
sL506L
I5
sL507L
I4
sL8700L
I5
sL8701L
I4
sL511L
I15
sL512L
I36
sL8705L
I13
sL8709L
I7
sL8710L
I6
sL519L
I6
sL9019L
I5
sL522L
I4
sL8715L
I8
sL8717L
I6
sL526L
I6
sL529L
I7
sL530L
I4
sL532L
I6
sL533L
I12
sL534L
I4
sL536L
I10
sL8729L
I6
sL8474L
I9
sL539L
I6
sL540L
I4
sL541L
I7
sL542L
I4
sL543L
I5
sL544L
I17
sL8737L
I4
sL546L
I15
sL548L
I4
sL8742L
I4
sL8743L
I18
sL552L
I4
sL553L
I8
sL8746L
I6
sL8747L
I21
sL8748L
I4
sL557L
I11
sL558L
I4
sL559L
I5
sL8753L
I19
sL8754L
I6
sL8756L
I4
sL565L
I28
sL566L
I4
sL567L
I7
sL568L
I4
sL569L
I7
sL570L
I11
sL571L
I4
sL572L
I13
sL574L
I8
sL577L
I4
sL8770L
I18
sL8771L
I5
sL8772L
I7
sL581L
I6
sL8775L
I7
sL8776L
I25
sL8921L
I7
sL8778L
I12
sL588L
I16
sL8290L
I21
sL590L
I15
sL8783L
I11
sL592L
I5
sL594L
I5
sL595L
I4
sL596L
I5
sL598L
I30
sL599L
I4
sL600L
I5
sL8793L
I5
sL602L
I5
sL603L
I11
sL605L
I5
sL8798L
I9
sL8799L
I4
sL8803L
I4
sL614L
I9
sL615L
I15
sL618L
I14
sL8295L
I7
sL620L
I20
sL621L
I4
sL622L
I5
sL623L
I8
sL8816L
I8
sL625L
I6
sL626L
I19
sL8819L
I6
sL8733L
I4
sL631L
I4
sL633L
I5
sL635L
I8
sL8298L
I7
sL638L
I19
sL639L
I10
sL641L
I4
sL8836L
I7
sL645L
I14
sL646L
I9
sL8839L
I4
sL649L
I24
sL650L
I10
sL651L
I9
sL8844L
I11
sL653L
I4
sL8847L
I15
sL658L
I5
sL8851L
I5
sL660L
I9
sL662L
I5
sL663L
I9
sL664L
I37
sL665L
I11
sL666L
I6
sL669L
I6
sL670L
I6
sL671L
I20
sL8864L
I4
sL8454L
I45
sL8867L
I12
sL676L
I5
sL677L
I5
sL8305L
I19
sL680L
I5
sL681L
I19
sL8874L
I8
sL683L
I4
sL8876L
I4
sL685L
I10
sL686L
I4
sL8879L
I5
sL690L
I4
sL692L
I4
sL8886L
I5
sL8887L
I7
sL8888L
I16
sL697L
I8
sL698L
I9
sL8891L
I10
sL8288L
I23
sL702L
I4
sL8895L
I12
sL705L
I10
sL706L
I7
sL8899L
I4
sL8900L
I6
sL8901L
I4
sL710L
I8
sL712L
I15
sL713L
I4
sL8311L
I16
sL8908L
I17
sL8909L
I5
sL718L
I5
sL719L
I4
sL720L
I6
sL8913L
I10
sL8915L
I4
sL724L
I6
sL8918L
I4
sL727L
I4
sL728L
I4
sL729L
I26
sL8922L
I14
sL731L
I5
sL9061L
I4
sL733L
I10
sL734L
I4
sL736L
I6
sL8929L
I27
sL8930L
I5
sL740L
I19
sL741L
I4
sL742L
I6
sL745L
I6
sL746L
I4
sL747L
I4
sL748L
I4
sL8941L
I5
sL750L
I6
sL751L
I16
sL752L
I5
sL753L
I15
sL754L
I17
sL755L
I23
sL756L
I4
sL8318L
I5
sL758L
I6
sL759L
I6
sL760L
I9
sL8953L
I19
sL762L
I27
sL9334L
I6
sL764L
I4
sL767L
I4
sL768L
I21
sL770L
I37
sL771L
I14
sL8964L
I22
sL774L
I8
sL8967L
I15
sL776L
I7
sL8969L
I11
sL779L
I4
sL780L
I4
sL781L
I13
sL782L
I5
sL783L
I13
sL784L
I8
sL8977L
I15
sL786L
I4
sL787L
I4
sL10119L
I12
sL789L
I7
sL790L
I39
sL791L
I10
sL792L
I4
sL794L
I5
sL795L
I4
sL797L
I4
sL8991L
I7
sL800L
I10
sL8994L
I4
sL803L
I4
sL804L
I8
sL8997L
I4
sL808L
I18
sL809L
I6
sL811L
I5
sL814L
I4
sL815L
I10
sL816L
I13
sL818L
I19
sL820L
I17
sL9694L
I7
sL822L
I5
sL823L
I4
sL824L
I9
sL825L
I5
sL9018L
I5
sL827L
I9
sL828L
I4
sL831L
I8
sL832L
I8
sL9025L
I4
sL9026L
I13
sL9027L
I9
sL9029L
I6
sL838L
I4
sL839L
I21
sL9033L
I13
sL9034L
I5
sL845L
I8
sL846L
I4
sL848L
I6
sL850L
I6
sL9043L
I5
sL852L
I36
sL854L
I6
sL857L
I6
sL9050L
I7
sL9051L
I8
sL861L
I5
sL864L
I21
sL865L
I4
sL866L
I7
sL867L
I7
sL868L
I4
sL869L
I9
sL9063L
I5
sL872L
I5
sL873L
I6
sL874L
I7
sL875L
I4
sL876L
I9
sL8338L
I6
sL878L
I6
sL879L
I28
sL880L
I4
sL881L
I9
sL882L
I5
sL883L
I7
sL9076L
I4
sL886L
I4
sL887L
I5
sL9081L
I5
sL892L
I7
sL893L
I5
sL895L
I15
sL896L
I4
sL897L
I21
sL898L
I4
sL899L
I6
sL901L
I4
sL903L
I15
sL9096L
I5
sL8759L
I6
sL906L
I18
sL907L
I6
sL908L
I7
sL909L
I4
sL910L
I4
sL9103L
I19
sL9104L
I4
sL913L
I10
sL9106L
I4
sL9826L
I15
sL916L
I4
sL917L
I7
sL9110L
I4
sL9111L
I4
sL9112L
I14
sL921L
I14
sL922L
I16
sL924L
I6
sL925L
I23
sL9118L
I23
sL928L
I7
sL929L
I4
sL932L
I11
sL9125L
I5
sL9126L
I14
sL936L
I5
sL938L
I5
sL9131L
I4
sL940L
I5
sL941L
I4
sL943L
I12
sL944L
I8
sL10099L
I7
sL947L
I9
sL9140L
I5
sL9141L
I5
sL950L
I5
sL951L
I22
sL8215L
I5
sL9145L
I13
sL954L
I4
sL8351L
I4
sL956L
I8
sL9149L
I4
sL9046L
I4
sL959L
I4
sL961L
I4
sL9155L
I4
sL965L
I5
sL967L
I16
sL968L
I4
sL9161L
I5
sL9162L
I5
sL9163L
I9
sL973L
I4
sL9167L
I5
sL976L
I6
sL9169L
I8
sL978L
I40
sL979L
I8
sL981L
I5
sL9370L
I7
sL985L
I8
sL986L
I6
sL9179L
I5
sL9180L
I5
sL989L
I8
sL9182L
I5
sL9603L
I8
sL9184L
I4
sL993L
I5
sL994L
I15
sL995L
I12
sL996L
I8
sL9189L
I5
sL998L
I34
sL9191L
I5
sL9192L
I17
sL1001L
I4
sL1003L
I14
sL1004L
I18
sL1005L
I15
sL1006L
I22
sL9199L
I5
sL1009L
I7
sL9202L
I40
sL9205L
I7
sL1014L
I17
sL1015L
I8
sL9208L
I10
sL1017L
I6
sL9210L
I6
sL1020L
I9
sL8362L
I6
sL9214L
I15
sL1023L
I5
sL1024L
I5
sL1025L
I14
sL1026L
I9
sL1027L
I7
sL9221L
I4
sL9554L
I10
sL1031L
I4
sL9224L
I4
sL1033L
I11
sL9226L
I6
sL1035L
I6
sL1036L
I11
sL1037L
I15
sL1038L
I6
sL1039L
I24
sL9232L
I4
sL1042L
I6
sL1043L
I8
sL1044L
I4
sL9237L
I6
sL9238L
I9
sL9239L
I16
sL1049L
I5
sL1050L
I8
sL1051L
I31
sL9244L
I7
sL1053L
I6
sL1055L
I14
sL9248L
I4
sL1057L
I17
sL10128L
I6
sL1059L
I7
sL9252L
I5
sL1061L
I10
sL9254L
I6
sL1063L
I13
sL9256L
I6
sL1065L
I6
sL9258L
I4
sL8370L
I4
sL1070L
I4
sL1071L
I26
sL1072L
I13
sL1074L
I6
sL1075L
I10
sL1076L
I4
sL9269L
I6
sL9270L
I6
sL1079L
I4
sL1080L
I8
sL1081L
I4
sL1084L
I6
sL1085L
I7
sL1086L
I8
sL1087L
I8
sL9280L
I5
sL1090L
I9
sL1091L
I5
sL1092L
I5
sL8374L
I12
sL1094L
I11
sL1095L
I4
sL9288L
I19
sL1098L
I15
sL9293L
I9
sL9299L
I16
sL9300L
I8
sL1109L
I11
sL1110L
I5
sL1111L
I4
sL9857L
I4
sL1113L
I4
sL1115L
I4
sL1116L
I6
sL1117L
I4
sL9310L
I18
sL1119L
I8
sL9312L
I11
sL1121L
I26
sL9314L
I4
sL8379L
I4
sL1125L
I31
sL9318L
I6
sL1127L
I18
sL1128L
I4
sL9014L
I7
sL1130L
I4
sL1131L
I5
sL1132L
I7
sL1133L
I6
sL1134L
I9
sL1135L
I5
sL1136L
I11
sL1137L
I5
sL1138L
I8
sL8494L
I4
sL1140L
I4
sL1141L
I5
sL1142L
I8
sL1143L
I12
sL1144L
I4
sL1145L
I9
sL1146L
I18
sL1147L
I5
sL1148L
I12
sL8300L
I5
sL1151L
I4
sL1152L
I4
sL1153L
I8
sL1154L
I8
sL1155L
I7
sL1157L
I5
sL9350L
I17
sL9351L
I4
sL1160L
I11
sL9353L
I4
sL1162L
I5
sL1163L
I5
sL1164L
I9
sL9357L
I4
sL9358L
I7
sL1167L
I8
sL1168L
I4
sL1169L
I26
sL1170L
I9
sL1172L
I7
sL1173L
I5
sL1174L
I12
sL1175L
I10
sL1176L
I6
sL9369L
I9
sL1178L
I8
sL1179L
I6
sL1181L
I5
sL9374L
I4
sL9375L
I8
sL1184L
I23
sL1186L
I20
sL1187L
I4
sL1188L
I11
sL8390L
I5
sL9383L
I5
sL8223L
I6
sL1193L
I17
sL1194L
I13
sL9387L
I4
sL1196L
I10
sL1197L
I8
sL1198L
I24
sL9391L
I6
sL9393L
I13
sL1203L
I11
sL1204L
I4
sL9397L
I11
sL9398L
I8
sL9399L
I19
sL9401L
I4
sL1210L
I4
sL9403L
I8
sL9042L
I34
sL9405L
I6
sL8414L
I9
sL1215L
I12
sL1217L
I16
sL1218L
I8
sL1221L
I10
sL9415L
I7
sL1224L
I36
sL1225L
I4
sL9418L
I6
sL9419L
I4
sL1228L
I7
sL9421L
I17
sL9422L
I8
sL9423L
I7
sL1233L
I9
sL9426L
I10
sL1235L
I4
sL1236L
I10
sL1237L
I7
sL1238L
I6
sL9432L
I4
sL1241L
I4
sL1242L
I6
sL1244L
I6
sL1245L
I4
sL1246L
I21
sL9439L
I7
sL9440L
I7
sL1250L
I6
sL1251L
I6
sL1252L
I4
sL1253L
I5
sL1254L
I15
sL8401L
I6
sL1256L
I4
sL9449L
I10
sL1258L
I7
sL9451L
I16
sL1260L
I37
sL1261L
I9
sL1262L
I4
sL1263L
I4
sL1264L
I6
sL9457L
I19
sL1266L
I20
sL1267L
I11
sL1268L
I11
sL1270L
I5
sL1271L
I4
sL1273L
I13
sL1275L
I4
sL9468L
I5
sL9469L
I4
sL9470L
I14
sL1279L
I13
sL9472L
I7
sL1282L
I30
sL1283L
I32
sL1285L
I30
sL9478L
I5
sL1287L
I5
sL9481L
I23
sL1290L
I22
sL9483L
I4
sL9484L
I4
sL9485L
I12
sL1296L
I19
sL1298L
I50
sL1299L
I14
sL9492L
I16
sL9494L
I6
sL9495L
I7
sL1305L
I11
sL1306L
I4
sL1307L
I4
sL9500L
I5
sL8410L
I4
sL1310L
I7
sL1311L
I41
sL1312L
I5
sL1313L
I14
sL9506L
I4
sL8411L
I10
sL8683L
I5
sL9510L
I4
sL9511L
I33
sL1320L
I9
sL8412L
I10
sL9514L
I6
sL1323L
I8
sL9516L
I4
sL1326L
I20
sL1329L
I19
sL1330L
I6
sL1331L
I14
sL1332L
I6
sL1333L
I6
sL9527L
I11
sL1336L
I16
sL9529L
I4
sL1338L
I15
sL9319L
I43
sL1340L
I14
sL9533L
I6
sL9534L
I4
sL1343L
I29
sL1344L
I14
sL1345L
I5
sL1346L
I14
sL1347L
I4
sL1348L
I9
sL9542L
I10
sL1351L
I4
sL9544L
I5
sL1353L
I20
sL1355L
I6
sL9549L
I4
sL1358L
I4
sL1359L
I4
sL1361L
I11
sL1362L
I4
sL8419L
I6
sL9556L
I9
sL9557L
I6
sL9558L
I17
sL1367L
I16
sL1368L
I5
sL9561L
I4
sL1370L
I5
sL1371L
I5
sL1373L
I11
sL9567L
I10
sL1376L
I8
sL1377L
I6
sL1378L
I19
sL1379L
I7
sL1380L
I8
sL9573L
I7
sL9574L
I14
sL9575L
I10
sL1386L
I5
sL1387L
I6
sL1388L
I9
sL1389L
I16
sL1390L
I9
sL1391L
I19
sL9584L
I6
sL1393L
I5
sL1394L
I12
sL1395L
I9
sL1397L
I10
sL9321L
I5
sL1400L
I5
sL1401L
I4
sL1403L
I20
sL9596L
I10
sL9598L
I12
sL1407L
I10
sL1408L
I7
sL1409L
I4
sL9602L
I7
sL1411L
I4
sL9604L
I8
sL1413L
I5
sL1415L
I4
sL1416L
I47
sL1417L
I4
sL9611L
I27
sL1420L
I23
sL1421L
I12
sL9920L
I4
sL1424L
I12
sL1425L
I12
sL1426L
I25
sL1427L
I7
sL9620L
I6
sL1429L
I5
sL1430L
I12
sL1431L
I25
sL1432L
I5
sL1433L
I8
sL9626L
I26
sL9595L
I4
sL1438L
I4
sL1439L
I5
sL1440L
I4
sL9633L
I39
sL1442L
I4
sL1443L
I21
sL1445L
I39
sL1446L
I8
sL1447L
I6
sL1448L
I8
sL1449L
I8
sL1450L
I11
sL9643L
I21
sL1452L
I24
sL9645L
I31
sL1456L
I4
sL9649L
I15
sL9650L
I4
sL9560L
I16
sL1461L
I5
sL9801L
I4
sL8436L
I21
sL1467L
I7
sL1469L
I12
sL1470L
I4
sL1471L
I14
sL9664L
I5
sL1474L
I4
sL9803L
I7
sL9668L
I14
sL9669L
I12
sL9670L
I8
sL1480L
I4
sL9673L
I12
sL1482L
I6
sL9676L
I5
sL1485L
I8
sL1487L
I8
sL1489L
I10
sL1491L
I12
sL1492L
I47
sL9686L
I11
sL1495L
I6
sL1496L
I30
sL1498L
I18
sL9807L
I9
sL1500L
I10
sL1502L
I4
sL9695L
I8
sL9696L
I4
sL9697L
I6
sL9698L
I15
sL1507L
I5
sL1508L
I4
sL1511L
I9
sL1512L
I10
sL1513L
I4
sL9709L
I5
sL9710L
I6
sL1520L
I5
sL1522L
I6
sL9715L
I5
sL1524L
I7
sL1525L
I10
sL1527L
I4
sL1529L
I41
sL1530L
I15
sL1531L
I7
sL1532L
I6
sL1533L
I7
sL1534L
I25
sL9727L
I5
sL8780L
I7
sL9729L
I39
sL1538L
I5
sL1539L
I8
sL1540L
I9
sL9571L
I4
sL1543L
I10
sL9736L
I20
sL1546L
I9
sL9815L
I8
sL1548L
I10
sL1549L
I13
sL1550L
I8
sL1551L
I27
sL1552L
I21
sL9745L
I4
sL1554L
I11
sL1555L
I11
sL1556L
I8
sL9749L
I4
sL1558L
I21
sL9817L
I5
sL1560L
I4
sL1561L
I9
sL9503L
I14
sL9755L
I8
sL1564L
I11
sL9757L
I5
sL9758L
I4
sL1567L
I7
sL1568L
I44
sL9761L
I12
sL1571L
I4
sL1572L
I34
sL1573L
I6
sL9767L
I15
sL1576L
I10
sL1577L
I4
sL9770L
I5
sL1579L
I24
sL1581L
I4
sL1583L
I10
sL9776L
I5
sL9777L
I4
sL9778L
I5
sL9779L
I6
sL1588L
I10
sL1589L
I9
sL9782L
I22
sL8457L
I6
sL1593L
I15
sL1594L
I25
sL1595L
I8
sL9788L
I13
sL8458L
I6
sL1599L
I18
sL1600L
I9
sL9793L
I5
sL1602L
I5
sL9796L
I6
sL1606L
I6
sL1607L
I6
sL1608L
I23
sL9328L
I21
sL1611L
I24
sL1612L
I12
sL1613L
I37
sL1615L
I22
sL1616L
I9
sL9810L
I5
sL9827L
I15
sL1620L
I9
sL1621L
I6
sL1623L
I20
sL9816L
I28
sL1625L
I5
sL1627L
I12
sL9820L
I22
sL1629L
I4
sL9822L
I16
sL9823L
I4
sL1632L
I5
sL9825L
I6
sL1634L
I18
sL1635L
I16
sL1637L
I37
sL1638L
I5
sL1639L
I7
sL9832L
I6
sL1642L
I22
sL1643L
I5
sL9836L
I4
sL1647L
I4
sL1648L
I6
sL1649L
I11
sL1650L
I5
sL8467L
I25
sL1652L
I6
sL9845L
I27
sL1654L
I6
sL1656L
I4
sL8468L
I11
sL1659L
I7
sL1660L
I7
sL1661L
I13
sL9855L
I7
sL9856L
I7
sL1665L
I8
sL1666L
I4
sL1667L
I6
sL1668L
I8
sL9861L
I6
sL1671L
I9
sL9864L
I16
sL1674L
I4
sL1675L
I4
sL1676L
I4
sL1677L
I21
sL9871L
I4
sL1680L
I4
sL1681L
I4
sL1682L
I14
sL1683L
I14
sL1684L
I4
sL1685L
I5
sL8473L
I15
sL9882L
I21
sL1691L
I31
sL9884L
I8
sL1693L
I5
sL1694L
I38
sL1697L
I9
sL8475L
I6
sL9892L
I17
sL1701L
I5
sL1702L
I12
sL1703L
I5
sL9896L
I18
sL9898L
I36
sL1708L
I17
sL9842L
I5
sL9902L
I10
sL9904L
I4
sL1713L
I6
sL9906L
I5
sL9907L
I5
sL1717L
I4
sL1718L
I6
sL1719L
I21
sL1720L
I4
sL1721L
I48
sL1722L
I14
sL1723L
I5
sL1725L
I4
sL9744L
I21
sL1727L
I17
sL1728L
I4
sL1730L
I6
sL1731L
I7
sL1732L
I4
sL8241L
I7
sL1735L
I4
sL9605L
I6
sL1737L
I10
sL9930L
I16
sL1740L
I9
sL1741L
I4
sL1742L
I8
sL9935L
I4
sL1744L
I11
sL1745L
I23
sL1746L
I14
sL8483L
I11
sL1749L
I4
sL9849L
I11
sL1752L
I7
sL9060L
I5
sL1754L
I27
sL1755L
I6
sL1759L
I15
sL1760L
I7
sL9953L
I5
sL1762L
I4
sL8242L
I12
sL9956L
I13
sL1765L
I7
sL1766L
I10
sL1769L
I6
sL1770L
I9
sL1771L
I37
sL1773L
I4
sL1774L
I18
sL9853L
I4
sL8788L
I5
sL1778L
I8
sL9972L
I11
sL1781L
I9
sL9068L
I5
sL8489L
I5
sL1784L
I4
sL1785L
I4
sL1786L
I22
sL1787L
I4
sL1788L
I45
sL1789L
I10
sL9983L
I4
sL1792L
I13
sL1793L
I7
sL1794L
I6
sL1795L
I7
sL9607L
I10
sL9570L
I4
sL1799L
I19
sL9992L
I5
sL1801L
I8
sL1802L
I4
sL1805L
I19
sL1806L
I13
sL9999L
I6
sL10000L
I5
sL10001L
I10
sL10002L
I21
sL9859L
I7
sL1812L
I11
sL1813L
I19
sL1814L
I23
sL10008L
I5
sL1817L
I4
sL1818L
I4
sL1819L
I8
sL1821L
I7
sL1822L
I12
sL1823L
I4
sL10016L
I9
sL1825L
I12
sL1826L
I12
sL1827L
I4
sL1828L
I5
sL1831L
I8
sL1833L
I12
sL10026L
I4
sL10027L
I15
sL1836L
I4
sL8498L
I18
sL1838L
I18
sL1839L
I9
sL1841L
I5
sL1842L
I4
sL8499L
I23
sL1844L
I5
sL1845L
I13
sL1847L
I18
sL1848L
I5
sL1849L
I8
sL1851L
I42
sL10044L
I8
sL1854L
I35
sL10049L
I8
sL10050L
I4
sL1859L
I5
sL8273L
I5
sL10054L
I4
sL1863L
I18
sL1864L
I12
sL1865L
I6
sL1866L
I8
sL9505L
I15
sL1868L
I5
sL1869L
I4
sL10062L
I5
sL1871L
I7
sL1872L
I35
sL9064L
I13
sL10067L
I5
sL10068L
I5
sL1877L
I14
sL1878L
I6
sL10071L
I8
sL1881L
I5
sL1882L
I4
sL1883L
I8
sL1884L
I6
sL10077L
I4
sL1889L
I4
sL10082L
I5
sL1891L
I7
sL1892L
I7
sL1894L
I10
sL1895L
I15
sL10088L
I4
sL1897L
I13
sL1898L
I10
sL10092L
I20
sL1901L
I5
sL1902L
I5
sL1903L
I4
sL1905L
I4
sL10098L
I6
sL1907L
I8
sL10100L
I6
sL10102L
I7
sL1911L
I9
sL10104L
I6
sL10105L
I8
sL1914L
I6
sL1915L
I4
sL1916L
I8
sL1917L
I11
sL1918L
I15
sL1919L
I7
sL10112L
I7
sL1922L
I4
sL1923L
I4
sL1924L
I5
sL1926L
I4
sL8513L
I40
sL1929L
I6
sL1930L
I8
sL1931L
I28
sL1932L
I4
sL1933L
I6
sL1935L
I4
sL1936L
I5
sL10129L
I4
sL1939L
I5
sL1940L
I10
sL1941L
I9
sL1942L
I6
sL1943L
I35
sL10137L
I6
sL9612L
I7
sL1947L
I8
sL1948L
I30
sL10141L
I9
sL1950L
I16
sL8517L
I4
sL1953L
I5
sL1954L
I6
sL10147L
I14
sL1956L
I7
sL1957L
I5
sL1958L
I10
sL1959L
I8
sL1960L
I4
sL10116L
I7
sL1963L
I5
sL1964L
I9
sL1966L
I23
sL9885L
I8
sL1968L
I5
sL10161L
I11
sL1971L
I14
sL1972L
I6
sL1973L
I28
sL1974L
I5
sL1975L
I5
sL1976L
I11
sL1977L
I11
sL1978L
I20
sL10171L
I5
sL1980L
I28
sL1981L
I4
sL10174L
I39
sL10175L
I9
sL1984L
I25
sL1985L
I4
sL10178L
I5
sL10179L
I4
sL1988L
I7
sL1990L
I4
sL1991L
I6
sL10184L
I5
sL1993L
I14
sL1995L
I7
sL1996L
I4
sL8633L
I4
sL1999L
I10
sL9124L
I25
sL2001L
I8
sL2002L
I7
sL2003L
I4
sL10199L
I5
sL9528L
I7
sL2012L
I18
sL2013L
I5
sL9015L
I13
sL10207L
I5
sL2016L
I23
sL8528L
I8
sL2018L
I5
sL10211L
I7
sL2020L
I42
sL2021L
I5
sL2022L
I6
sL2023L
I4
sL2024L
I32
sL2025L
I8
sL10221L
I6
sL10223L
I6
sL2032L
I4
sL2033L
I15
sL10226L
I19
sL2035L
I6
sL2036L
I6
sL10230L
I5
sL2040L
I7
sL10233L
I4
sL10234L
I7
sL2043L
I8
sL2044L
I4
sL2046L
I4
sL8533L
I9
sL2048L
I8
sL10241L
I23
sL2050L
I5
sL2051L
I4
sL2052L
I6
sL2053L
I12
sL2054L
I6
sL2057L
I8
sL10251L
I20
sL2060L
I12
sL2061L
I5
sL10254L
I13
sL2063L
I10
sL2064L
I25
sL2065L
I4
sL2066L
I20
sL10259L
I6
sL2068L
I14
sL10261L
I7
sL2070L
I5
sL2071L
I9
sL2072L
I7
sL9889L
I15
sL2076L
I15
sL2077L
I5
sL2078L
I23
sL2079L
I6
sL10273L
I13
sL9070L
I5
sL8539L
I4
sL2084L
I7
sL10277L
I5
sL2086L
I14
sL2087L
I21
sL10280L
I4
sL10281L
I7
sL2090L
I7
sL2095L
I16
sL2096L
I5
sL2100L
I29
sL8542L
I7
sL2104L
I9
sL2106L
I5
sL2107L
I4
sL2108L
I6
sL2110L
I4
sL2111L
I6
sL2113L
I14
sL2114L
I11
sL2115L
I7
sL2116L
I9
sL9910L
I5
sL2119L
I29
sL9345L
I4
sL2123L
I9
sL2124L
I5
sL2126L
I4
sL2128L
I5
sL2132L
I28
sL2133L
I6
sL2135L
I7
sL2136L
I5
sL2137L
I4
sL2141L
I20
sL2142L
I4
sL8549L
I9
sL2144L
I20
sL2148L
I11
sL2151L
I5
sL2152L
I8
sL2153L
I8
sL2156L
I7
sL2157L
I10
sL2159L
I11
sL9998L
I11
sL2168L
I4
sL2169L
I4
sL2171L
I5
sL2172L
I15
sL2175L
I4
sL2176L
I22
sL2177L
I13
sL2178L
I4
sL2180L
I8
sL2181L
I4
sL2182L
I13
sL2183L
I4
sL2184L
I4
sL8416L
I5
sL2187L
I6
sL2188L
I6
sL2189L
I12
sL2190L
I5
sL8557L
I11
sL2193L
I6
sL2194L
I5
sL2195L
I9
sL2196L
I8
sL2198L
I4
sL2199L
I11
sL2201L
I9
sL2202L
I40
sL2204L
I4
sL2205L
I20
sL9925L
I5
sL2208L
I6
sL2209L
I5
sL2211L
I16
sL2212L
I17
sL2217L
I9
sL2219L
I8
sL2220L
I4
sL2221L
I4
sL2222L
I25
sL9894L
I13
sL2225L
I40
sL2229L
I6
sL2231L
I14
sL2233L
I8
sL2235L
I13
sL2237L
I4
sL2238L
I5
sL2239L
I5
sL2240L
I6
sL2242L
I6
sL8830L
I4
sL2245L
I20
sL2246L
I9
sL2248L
I14
sL9932L
I8
sL8962L
I17
sL2252L
I13
sL2253L
I6
sL2255L
I6
sL2257L
I4
sL2258L
I7
sL2259L
I6
sL2260L
I4
sL2261L
I4
sL8569L
I7
sL2265L
I11
sL2267L
I5
sL2268L
I5
sL2270L
I7
sL2271L
I8
sL2272L
I7
sL2273L
I23
sL2274L
I12
sL2276L
I15
sL10063L
I4
sL2278L
I4
sL2279L
I7
sL2280L
I4
sL2281L
I8
sL2288L
I6
sL10169L
I7
sL2290L
I7
sL9939L
I19
sL2294L
I8
sL2295L
I7
sL2296L
I20
sL2298L
I4
sL2299L
I22
sL2301L
I7
sL2303L
I5
sL2305L
I10
sL9624L
I5
sL2311L
I26
sL2312L
I5
sL2313L
I11
sL2314L
I5
sL9943L
I12
sL2316L
I6
sL9508L
I5
sL2318L
I9
sL9944L
I9
sL2324L
I4
sL2326L
I6
sL9945L
I6
sL2328L
I15
sL2330L
I18
sL2331L
I4
sL2332L
I4
sL9946L
I6
sL2336L
I18
sL2338L
I5
sL2340L
I4
sL2342L
I13
sL2348L
I6
sL2353L
I5
sL2355L
I4
sL2357L
I16
sL2360L
I4
sL2362L
I5
sL2363L
I7
sL2366L
I5
sL2368L
I5
sL9952L
I19
sL2370L
I17
sL2372L
I40
sL2374L
I14
sL2377L
I10
sL2379L
I40
sL9954L
I14
sL2382L
I10
sL2383L
I5
sL2388L
I4
sL2390L
I6
sL2391L
I18
sL2393L
I9
sL9627L
I5
sL2397L
I6
sL2398L
I6
sL2399L
I15
sL2404L
I6
sL2405L
I4
sL2406L
I4
sL8593L
I25
sL2408L
I4
sL2412L
I4
sL2414L
I6
sL2415L
I6
sL2421L
I5
sL2422L
I6
sL2423L
I13
sL2428L
I11
sL9962L
I4
sL8983L
I5
sL8597L
I7
sL2432L
I16
sL2433L
I5
sL2434L
I8
sL2435L
I15
sL2437L
I4
sL2438L
I17
sL2439L
I6
sL2440L
I19
sL2442L
I24
sL8599L
I5
sL2444L
I13
sL2445L
I15
sL2447L
I25
sL2448L
I5
sL2449L
I37
sL2450L
I10
sL2451L
I8
sL2452L
I4
sL2453L
I5
sL10209L
I26
sL2458L
I6
sL2459L
I12
sL2460L
I4
sL8602L
I5
sL9968L
I9
sL2466L
I4
sL2467L
I5
sL2468L
I14
sL2469L
I13
sL2470L
I6
sL2471L
I4
sL2474L
I4
sL2476L
I23
sL2477L
I7
sL2480L
I20
sL2481L
I8
sL2482L
I23
sL2483L
I11
sL2487L
I5
sL2488L
I4
sL2489L
I6
sL2491L
I4
sL2492L
I6
sL9251L
I22
sL2494L
I21
sL9973L
I15
sL2496L
I4
sL8608L
I9
sL2498L
I9
sL2501L
I22
sL2502L
I4
sL2504L
I7
sL2505L
I6
sL9975L
I6
sL2508L
I19
sL2511L
I30
sL2512L
I16
sL2513L
I4
sL8267L
I5
sL2515L
I6
sL2516L
I6
sL2518L
I4
sL9977L
I19
sL2522L
I7
sL2524L
I7
sL2525L
I5
sL2526L
I13
sL2528L
I5
sL2529L
I22
sL10177L
I11
sL2531L
I6
sL2535L
I7
sL9980L
I5
sL2540L
I4
sL2544L
I7
sL8616L
I27
sL2548L
I20
sL2549L
I10
sL2550L
I9
sL2551L
I7
sL2552L
I22
sL9905L
I4
sL2554L
I42
sL2557L
I19
sL2558L
I4
sL2560L
I4
sL9985L
I10
sL2569L
I10
sL2571L
I41
sL2572L
I6
sL9986L
I5
sL8269L
I4
sL9987L
I8
sL2582L
I5
sL9867L
I12
sL9728L
I4
sL2585L
I6
sL2587L
I5
sL2588L
I35
sL2589L
I19
sL2590L
I7
sL2591L
I4
sL2592L
I4
sL2593L
I5
sL2595L
I12
sL9619L
I4
sL8625L
I5
sL2600L
I5
sL9991L
I24
sL2606L
I4
sL2612L
I7
sL2614L
I8
sL2615L
I14
sL8628L
I6
sL2618L
I7
sL2619L
I4
sL2620L
I4
sL9994L
I12
sL2623L
I9
sL2626L
I16
sL2627L
I5
sL2628L
I7
sL2629L
I5
sL2633L
I9
sL8271L
I6
sL2635L
I16
sL2636L
I4
sL9635L
I17
sL2638L
I16
sL2639L
I15
sL2640L
I5
sL2641L
I10
sL2642L
I9
sL2645L
I5
sL2646L
I5
sL2647L
I24
sL2648L
I7
sL10274L
I21
sL2651L
I5
sL2652L
I5
sL9090L
I8
sL2655L
I7
sL2657L
I11
sL2660L
I4
sL2664L
I32
sL2665L
I18
sL2667L
I8
sL10249L
I4
sL8545L
I10
sL2673L
I4
sL2674L
I8
sL2675L
I11
sL2676L
I5
sL2678L
I12
sL2679L
I18
sL2681L
I5
sL2682L
I6
sL2683L
I21
sL2685L
I4
sL2687L
I10
sL2688L
I6
sL2689L
I8
sL2690L
I16
sL2691L
I25
sL2693L
I15
sL2694L
I4
sL2695L
I4
sL2697L
I10
sL2698L
I17
sL2699L
I7
sL2700L
I7
sL2702L
I10
sL2704L
I5
sL2706L
I4
sL2709L
I8
sL2710L
I5
sL10009L
I22
sL2712L
I5
sL2714L
I4
sL2716L
I4
sL2717L
I7
sL2722L
I4
sL2723L
I5
sL2724L
I27
sL2725L
I4
sL2727L
I10
sL2728L
I4
sL2730L
I4
sL2731L
I6
sL2732L
I5
sL9911L
I4
sL2734L
I6
sL2736L
I4
sL2737L
I7
sL2738L
I8
sL2739L
I4
sL2741L
I7
sL2742L
I4
sL2743L
I12
sL9093L
I5
sL2745L
I8
sL2748L
I5
sL2750L
I8
sL2752L
I5
sL2754L
I6
sL2757L
I24
sL2758L
I7
sL2762L
I5
sL2763L
I11
sL2764L
I4
sL10018L
I6
sL8529L
I9
sL2769L
I6
sL2770L
I38
sL2771L
I4
sL2775L
I6
sL2777L
I6
sL2778L
I9
sL2780L
I4
sL2782L
I5
sL10244L
I21
sL2785L
I4
sL9640L
I20
sL2788L
I20
sL2790L
I6
sL2791L
I14
sL2792L
I9
sL2794L
I7
sL2795L
I6
sL2796L
I8
sL2799L
I9
sL2803L
I10
sL2809L
I14
sL2810L
I4
sL2814L
I4
sL2815L
I11
sL2817L
I9
sL2818L
I4
sL2819L
I8
sL2821L
I5
sL2826L
I9
sL2829L
I4
sL2830L
I18
sL2831L
I6
sL2833L
I10
sL2834L
I5
sL2835L
I4
sL2839L
I6
sL10031L
I4
sL2847L
I13
sL9187L
I25
sL2849L
I5
sL2850L
I5
sL2851L
I19
sL2854L
I27
sL10033L
I4
sL2857L
I11
sL2859L
I4
sL10188L
I14
sL10034L
I21
sL2862L
I9
sL2863L
I19
sL2864L
I15
sL10035L
I5
sL2868L
I5
sL2869L
I11
sL2870L
I7
sL2871L
I4
sL2872L
I4
sL10036L
I6
sL8671L
I29
sL2876L
I4
sL2878L
I4
sL2879L
I17
sL2881L
I5
sL2882L
I4
sL2883L
I4
sL2887L
I5
sL2891L
I9
sL8674L
I6
sL2894L
I9
sL2896L
I6
sL2897L
I15
sL2898L
I6
sL9130L
I7
sL2901L
I4
sL2902L
I16
sL2904L
I4
sL2905L
I6
sL2906L
I14
sL9644L
I8
sL2909L
I15
sL8677L
I4
sL2913L
I6
sL2915L
I4
sL2917L
I16
sL2918L
I5
sL2919L
I23
sL2920L
I9
sL2922L
I33
sL2925L
I20
sL2930L
I7
sL2931L
I5
sL2934L
I4
sL2936L
I5
sL8487L
I10
sL2942L
I4
sL2943L
I23
sL2947L
I4
sL2948L
I18
sL10191L
I8
sL2952L
I4
sL8684L
I9
sL2954L
I15
sL2956L
I4
sL2958L
I4
sL2960L
I7
sL2962L
I5
sL10051L
I5
sL2964L
I6
sL2965L
I4
sL2966L
I5
sL2967L
I19
sL2969L
I12
sL2970L
I6
sL2974L
I7
sL2975L
I13
sL2977L
I6
sL2978L
I4
sL2982L
I24
sL2987L
I14
sL2988L
I7
sL2990L
I6
sL2991L
I10
sL9642L
I4
sL2994L
I5
sL2995L
I5
sL2996L
I4
sL2997L
I12
sL3000L
I26
sL3001L
I19
sL3002L
I11
sL3003L
I7
sL3004L
I8
sL10058L
I5
sL3006L
I8
sL3010L
I4
sL3011L
I5
sL3012L
I5
sL3013L
I5
sL3015L
I6
sL3016L
I5
sL3017L
I4
sL3020L
I8
sL3021L
I13
sL3022L
I29
sL3024L
I4
sL3025L
I4
sL3026L
I15
sL3027L
I4
sL3029L
I5
sL3032L
I5
sL3033L
I10
sL9731L
I5
sL3035L
I6
sL3036L
I7
sL8698L
I28
sL3040L
I5
sL8699L
I9
sL10065L
I5
sL3048L
I11
sL3051L
I4
sL3054L
I7
sL3055L
I4
sL3057L
I9
sL3058L
I4
sL3060L
I5
sL3066L
I14
sL3067L
I4
sL3069L
I8
sL3072L
I6
sL3076L
I17
sL10070L
I11
sL3079L
I10
sL3081L
I13
sL3083L
I6
sL3086L
I7
sL3087L
I4
sL3088L
I7
sL3091L
I4
sL3093L
I5
sL9923L
I4
sL3098L
I8
sL3100L
I9
sL3101L
I6
sL3102L
I11
sL3103L
I5
sL3105L
I7
sL3107L
I4
sL3110L
I6
sL3113L
I5
sL3114L
I18
sL3115L
I5
sL3116L
I6
sL3117L
I6
sL9177L
I22
sL3122L
I8
sL3125L
I22
sL3126L
I20
sL3128L
I5
sL3130L
I7
sL3131L
I16
sL3134L
I7
sL3139L
I8
sL9379L
I5
sL3142L
I6
sL10081L
I4
sL3145L
I4
sL3149L
I5
sL3151L
I11
sL3155L
I9
sL8718L
I15
sL3158L
I6
sL3161L
I29
sL3162L
I13
sL3163L
I10
sL3164L
I5
sL3165L
I6
sL3167L
I5
sL3169L
I11
sL9380L
I5
sL3174L
I12
sL3175L
I16
sL3178L
I6
sL3179L
I5
sL8562L
I5
sL3182L
I5
sL3183L
I6
sL3184L
I7
sL3186L
I16
sL3187L
I12
sL3189L
I7
sL3193L
I13
sL3195L
I4
sL3196L
I7
sL3197L
I12
sL3198L
I19
sL8725L
I5
sL3200L
I5
sL9381L
I4
sL3202L
I8
sL3203L
I6
sL3204L
I6
sL3205L
I5
sL3207L
I8
sL3208L
I9
sL3210L
I4
sL3211L
I27
sL3214L
I10
sL3217L
I4
sL3219L
I18
sL9109L
I6
sL3226L
I26
sL8730L
I6
sL3232L
I19
sL3234L
I8
sL8731L
I8
sL3236L
I14
sL3237L
I7
sL3239L
I4
sL3240L
I25
sL8732L
I29
sL3242L
I5
sL3243L
I28
sL3244L
I15
sL3245L
I20
sL3246L
I21
sL3247L
I6
sL3249L
I4
sL3250L
I9
sL3251L
I5
sL8734L
I4
sL3254L
I12
sL3257L
I4
sL3258L
I4
sL3259L
I7
sL3261L
I5
sL3262L
I6
sL9967L
I9
sL3268L
I11
sL3269L
I9
sL3270L
I8
sL3271L
I4
sL3273L
I20
sL3274L
I5
sL3276L
I4
sL8738L
I13
sL3278L
I9
sL3282L
I6
sL10108L
I4
sL3285L
I4
sL3286L
I8
sL3287L
I6
sL3289L
I13
sL9384L
I8
sL3292L
I7
sL3294L
I7
sL3297L
I8
sL3298L
I6
sL8478L
I20
sL8566L
I4
sL3302L
I5
sL3303L
I17
sL3304L
I4
sL3305L
I4
sL3306L
I14
sL3307L
I4
sL3309L
I11
sL3311L
I15
sL3312L
I12
sL8744L
I4
sL8446L
I4
sL3317L
I8
sL3319L
I26
sL3320L
I6
sL9006L
I4
sL3322L
I7
sL3323L
I5
sL3325L
I4
sL3326L
I9
sL3328L
I4
sL3329L
I27
sL3330L
I7
sL3332L
I11
sL3334L
I4
sL3335L
I12
sL3336L
I10
sL3337L
I4
sL3338L
I5
sL10114L
I13
sL3342L
I6
sL3343L
I5
sL9748L
I15
sL3349L
I5
sL3350L
I5
sL3351L
I6
sL3352L
I6
sL3353L
I14
sL8751L
I14
sL9659L
I7
sL3360L
I5
sL3361L
I15
sL3362L
I5
sL3365L
I8
sL3367L
I20
sL3371L
I6
sL3372L
I4
sL3373L
I14
sL3379L
I4
sL3381L
I5
sL10121L
I4
sL10236L
I4
sL3387L
I7
sL3389L
I17
sL3390L
I6
sL3391L
I27
sL9933L
I5
sL10123L
I4
sL3396L
I8
sL3397L
I13
sL3398L
I17
sL3399L
I4
sL3403L
I7
sL3405L
I7
sL8406L
I22
sL3407L
I8
sL3408L
I5
sL9388L
I6
sL3412L
I23
sL3413L
I7
sL3414L
I7
sL8761L
I9
sL3416L
I4
sL9661L
I8
sL3419L
I20
sL3420L
I16
sL3422L
I13
sL3423L
I19
sL3424L
I16
sL3425L
I8
sL3426L
I4
sL3427L
I7
sL3429L
I4
sL8764L
I4
sL3435L
I5
sL3436L
I8
sL3437L
I11
sL3438L
I4
sL3439L
I8
sL3441L
I17
sL3442L
I20
sL3443L
I12
sL3445L
I5
sL3446L
I5
sL3448L
I4
sL3449L
I23
sL3450L
I6
sL3453L
I4
sL10133L
I18
sL3458L
I4
sL3460L
I5
sL3461L
I11
sL8769L
I13
sL3466L
I13
sL3467L
I5
sL3468L
I5
sL3469L
I14
sL3470L
I7
sL3471L
I13
sL3472L
I8
sL3474L
I7
sL3477L
I21
sL3478L
I5
sL3479L
I4
sL8572L
I15
sL3482L
I9
sL9734L
I4
sL3486L
I4
sL3487L
I4
sL3488L
I6
sL3491L
I13
sL3493L
I30
sL3495L
I4
sL3496L
I24
sL3498L
I21
sL3499L
I6
sL3500L
I13
sL3502L
I10
sL3504L
I5
sL3505L
I8
sL9579L
I11
sL3515L
I8
sL3520L
I8
sL3524L
I6
sL3525L
I7
sL10145L
I6
sL3529L
I26
sL3530L
I7
sL3531L
I8
sL9901L
I5
sL3533L
I7
sL3534L
I25
sL3539L
I8
sL3540L
I26
sL3541L
I9
sL3543L
I4
sL3544L
I5
sL8428L
I45
sL3548L
I10
sL3549L
I14
sL3550L
I10
sL3551L
I7
sL3553L
I21
sL3554L
I11
sL3555L
I6
sL10150L
I5
sL3559L
I6
sL3561L
I11
sL10151L
I4
sL8786L
I4
sL3567L
I7
sL3568L
I35
sL3572L
I21
sL3574L
I6
sL10153L
I10
sL3577L
I4
sL3579L
I9
sL3580L
I6
sL3583L
I7
sL3585L
I17
sL3586L
I6
sL3587L
I9
sL3588L
I5
sL3589L
I5
sL3590L
I18
sL3593L
I5
sL3594L
I19
sL3595L
I4
sL3597L
I9
sL3599L
I4
sL3600L
I20
sL3601L
I5
sL3602L
I13
sL3603L
I15
sL3604L
I4
sL3605L
I4
sL3609L
I18
sL3610L
I5
sL8794L
I11
sL3615L
I8
sL3618L
I4
sL3621L
I4
sL3625L
I8
sL3627L
I6
sL3628L
I23
sL8797L
I18
sL3633L
I7
sL3634L
I4
sL10163L
I7
sL3636L
I5
sL9623L
I7
sL3640L
I4
sL3643L
I6
sL3644L
I10
sL3645L
I4
sL3647L
I4
sL3648L
I9
sL3649L
I7
sL3650L
I6
sL3651L
I4
sL10166L
I4
sL3654L
I6
sL3655L
I5
sL3656L
I6
sL3657L
I11
sL3661L
I4
sL3663L
I26
sL3664L
I4
sL3665L
I5
sL3668L
I6
sL3669L
I4
sL3671L
I5
sL3673L
I8
sL3674L
I8
sL3675L
I5
sL3677L
I20
sL3680L
I5
sL3681L
I7
sL3682L
I7
sL3683L
I11
sL3686L
I4
sL3692L
I23
sL3693L
I34
sL3694L
I22
sL3697L
I9
sL3701L
I7
sL3702L
I4
sL3703L
I7
sL3707L
I16
sL3711L
I7
sL3712L
I20
sL3714L
I11
sL3715L
I12
sL3718L
I15
sL3719L
I9
sL3720L
I11
sL3724L
I4
sL3726L
I15
sL3727L
I6
sL3729L
I12
sL3730L
I5
sL3731L
I7
sL3732L
I7
sL8814L
I6
sL3734L
I4
sL3739L
I6
sL3742L
I4
sL3744L
I8
sL3746L
I8
sL3747L
I4
sL3748L
I12
sL3749L
I16
sL3750L
I5
sL3751L
I4
sL3754L
I20
sL3756L
I8
sL8818L
I7
sL3760L
I9
sL3761L
I4
sL3762L
I21
sL3763L
I18
sL3764L
I6
sL10185L
I5
sL3768L
I5
sL3769L
I5
sL3772L
I5
sL3773L
I4
sL3774L
I20
sL3777L
I11
sL3778L
I4
sL3779L
I4
sL10227L
I11
sL3785L
I6
sL3786L
I4
sL8823L
I13
sL3788L
I13
sL3790L
I4
sL3793L
I6
sL9128L
I5
sL3796L
I15
sL3797L
I11
sL8825L
I5
sL10118L
I14
sL3801L
I11
sL3802L
I6
sL3803L
I4
sL3806L
I9
sL9674L
I19
sL3809L
I32
sL3810L
I6
sL8827L
I11
sL3812L
I6
sL3814L
I5
sL10193L
I5
sL3817L
I20
sL3818L
I5
sL3820L
I10
sL3823L
I5
sL3824L
I9
sL3826L
I4
sL3827L
I37
sL3829L
I4
sL3839L
I23
sL3841L
I4
sL3845L
I4
sL3846L
I5
sL9791L
I23
sL3848L
I10
sL3851L
I6
sL3852L
I4
sL3853L
I4
sL3855L
I10
sL3856L
I7
sL3858L
I20
sL3859L
I29
sL3860L
I5
sL3861L
I5
sL3866L
I26
sL3871L
I15
sL3872L
I9
sL3875L
I6
sL3876L
I4
sL8838L
I10
sL3879L
I16
sL3881L
I5
sL3882L
I4
sL3883L
I18
sL3889L
I6
sL3890L
I23
sL3894L
I6
sL8841L
I20
sL9716L
I21
sL3898L
I7
sL8842L
I9
sL3902L
I8
sL3903L
I5
sL3904L
I5
sL3905L
I5
sL3907L
I6
sL3911L
I21
sL3912L
I6
sL9846L
I4
sL10210L
I8
sL3918L
I5
sL8845L
I13
sL3921L
I10
sL3922L
I15
sL3923L
I6
sL3924L
I6
sL3927L
I7
sL3929L
I16
sL3930L
I4
sL3933L
I5
sL3935L
I4
sL3936L
I5
sL3937L
I7
sL3938L
I9
sL3939L
I9
sL3940L
I4
sL10214L
I4
sL3942L
I20
sL3943L
I5
sL10215L
I7
sL3948L
I10
sL8850L
I4
sL3950L
I5
sL3951L
I10
sL3953L
I7
sL3954L
I4
sL3958L
I19
sL3959L
I8
sL8852L
I5
sL3962L
I9
sL3964L
I5
sL3965L
I4
sL3966L
I5
sL3968L
I5
sL3970L
I7
sL10225L
I4
sL3972L
I4
sL8854L
I7
sL3975L
I5
sL3977L
I20
sL3978L
I10
sL3979L
I9
sL3980L
I13
sL3981L
I15
sL3982L
I11
sL3983L
I23
sL8856L
I5
sL3986L
I12
sL3987L
I5
sL3994L
I5
sL3995L
I6
sL3996L
I4
sL4002L
I15
sL4004L
I23
sL4005L
I9
sL4006L
I6
sL4007L
I4
sL4009L
I4
sL4010L
I32
sL4012L
I5
sL8861L
I18
sL4016L
I4
sL4017L
I4
sL4019L
I5
sL4020L
I5
sL4021L
I8
sL4022L
I50
sL4025L
I6
sL4027L
I33
sL8863L
I12
sL4030L
I24
sL4031L
I5
sL4033L
I9
sL9136L
I16
sL8865L
I7
sL4041L
I8
sL4044L
I8
sL4045L
I5
sL4047L
I5
sL10232L
I6
sL4051L
I31
sL4052L
I5
sL4057L
I8
sL4059L
I4
sL10228L
I5
sL4063L
I6
sL4064L
I4
sL9824L
I11
sL4066L
I24
sL4067L
I18
sL4068L
I4
sL4069L
I20
sL4070L
I17
sL4071L
I21
sL4072L
I10
sL4073L
I5
sL4075L
I7
sL4076L
I16
sL4077L
I4
sL4079L
I10
sL4080L
I4
sL4081L
I9
sL4082L
I5
sL8873L
I6
sL4094L
I6
sL4095L
I43
sL4097L
I25
sL8396L
I5
sL4100L
I26
sL4101L
I7
sL4103L
I9
sL4106L
I21
sL4108L
I5
sL4110L
I4
sL4111L
I5
sL4113L
I9
sL9957L
I18
sL4116L
I5
sL4117L
I5
sL8815L
I11
sL4119L
I32
sL4120L
I4
sL4121L
I7
sL4124L
I4
sL4126L
I8
sL4127L
I10
sL4128L
I6
sL4132L
I4
sL4135L
I4
sL4136L
I8
sL4138L
I6
sL4139L
I4
sL4144L
I5
sL4147L
I4
sL4148L
I8
sL4149L
I5
sL4150L
I13
sL4151L
I18
sL4152L
I4
sL4153L
I5
sL4154L
I4
sL4158L
I5
sL4161L
I4
sL4162L
I8
sL4163L
I5
sL4165L
I5
sL4166L
I19
sL4167L
I4
sL4169L
I7
sL4175L
I24
sL4176L
I44
sL4179L
I5
sL4180L
I5
sL4181L
I8
sL4182L
I4
sL4186L
I6
sL4187L
I5
sL8890L
I7
sL4190L
I6
sL4192L
I5
sL4194L
I5
sL4195L
I5
sL4196L
I10
sL4197L
I11
sL4199L
I20
sL4202L
I6
sL4203L
I14
sL4205L
I22
sL4207L
I6
sL4209L
I5
sL4210L
I4
sL4212L
I8
sL9142L
I6
sL4216L
I6
sL4217L
I4
sL4220L
I7
sL4221L
I5
sL4222L
I18
sL4223L
I4
sL4224L
I5
sL4225L
I7
sL4226L
I32
sL4227L
I29
sL9688L
I9
sL4230L
I5
sL4231L
I5
sL4232L
I22
sL4234L
I5
sL4235L
I25
sL8898L
I6
sL4239L
I18
sL4240L
I25
sL4241L
I6
sL4242L
I4
sL4244L
I11
sL4249L
I9
sL4250L
I6
sL4251L
I22
sL4252L
I4
sL4253L
I4
sL4255L
I9
sL4256L
I6
sL4257L
I39
sL4258L
I17
sL4259L
I8
sL4260L
I4
sL8902L
I13
sL8598L
I4
sL4263L
I13
sL4264L
I7
sL4269L
I5
sL4270L
I4
sL4272L
I16
sL8904L
I22
sL4274L
I5
sL4275L
I6
sL4277L
I5
sL4279L
I10
sL4280L
I7
sL4283L
I8
sL4284L
I4
sL4285L
I20
sL4286L
I18
sL4288L
I6
sL8907L
I7
sL4292L
I5
sL4293L
I7
sL4296L
I11
sL4298L
I4
sL4301L
I7
sL9794L
I5
sL4303L
I9
sL4305L
I6
sL9497L
I12
sL10275L
I6
sL4309L
I5
sL4311L
I4
sL4316L
I12
sL4317L
I6
sL4319L
I6
sL4320L
I18
sL8912L
I4
sL4323L
I4
sL4324L
I5
sL10278L
I5
sL4327L
I34
sL4329L
I6
sL4331L
I13
sL4336L
I5
sL4338L
I6
sL4340L
I5
sL4341L
I26
sL4342L
I6
sL4343L
I18
sL4344L
I4
sL4345L
I5
sL9692L
I7
sL4350L
I5
sL4351L
I11
sL4352L
I23
sL4356L
I18
sL4357L
I5
sL4358L
I8
sL4359L
I5
sL4361L
I4
sL4363L
I7
sL4364L
I4
sL4365L
I13
sL9302L
I6
sL4368L
I4
sL4369L
I6
sL4370L
I4
sL9420L
I9
sL4373L
I13
sL4374L
I10
sL4375L
I11
sL4376L
I7
sL8811L
I5
sL4378L
I10
sL4379L
I4
sL8758L
I4
sL4385L
I9
sL4386L
I6
sL4387L
I37
sL4391L
I4
sL4392L
I42
sL4394L
I9
sL4396L
I4
sL4397L
I12
sL4398L
I52
sL4399L
I4
sL4400L
I6
sL4402L
I6
sL4403L
I7
sL4404L
I7
sL8926L
I8
sL4406L
I13
sL4407L
I4
sL4408L
I5
sL4409L
I9
sL4410L
I6
sL4411L
I13
sL4415L
I14
sL4417L
I4
sL4418L
I31
sL4419L
I4
sL4420L
I27
sL4421L
I8
sL10240L
I28
sL4423L
I4
sL4425L
I13
sL4426L
I11
sL4427L
I4
sL4431L
I8
sL4432L
I12
sL4434L
I4
sL4436L
I5
sL4437L
I16
sL4438L
I13
sL4440L
I5
sL8932L
I4
sL4444L
I7
sL4445L
I4
sL4446L
I25
sL4447L
I4
sL4449L
I9
sL4451L
I4
sL4452L
I4
sL4454L
I7
sL4455L
I6
sL4456L
I5
sL4458L
I6
sL4460L
I4
sL4461L
I26
sL4462L
I8
sL4464L
I6
sL4466L
I12
sL4467L
I8
sL4468L
I16
sL4470L
I10
sL4471L
I5
sL4473L
I7
sL4475L
I8
sL4477L
I4
sL4478L
I21
sL4480L
I4
sL9712L
I5
sL4482L
I4
sL8939L
I7
sL4486L
I17
sL4488L
I6
sL8940L
I5
sL4490L
I4
sL4491L
I18
sL4492L
I5
sL4496L
I26
sL4497L
I5
sL4498L
I22
sL4499L
I28
sL4500L
I9
sL4504L
I7
sL8943L
I5
sL4508L
I19
sL4509L
I10
sL8944L
I10
sL4514L
I6
sL4515L
I6
sL4518L
I5
sL4519L
I14
sL8868L
I6
sL4522L
I5
sL4524L
I17
sL4525L
I5
sL4526L
I6
sL4528L
I23
sL4530L
I4
sL8947L
I13
sL4533L
I7
sL4535L
I4
sL4536L
I5
sL4537L
I7
sL4538L
I6
sL4540L
I6
sL4541L
I5
sL4542L
I23
sL8949L
I4
sL4544L
I18
sL4545L
I4
sL4546L
I7
sL4548L
I11
sL4549L
I5
sL4553L
I20
sL4554L
I6
sL4555L
I5
sL4556L
I8
sL4557L
I12
sL4558L
I7
sL4559L
I6
sL4563L
I10
sL4566L
I20
sL4567L
I4
sL4568L
I11
sL4569L
I6
sL4573L
I24
sL4574L
I10
sL4576L
I4
sL4578L
I7
sL4580L
I36
sL4582L
I6
sL4583L
I6
sL4584L
I7
sL4585L
I8
sL8336L
I6
sL4587L
I6
sL4591L
I12
sL4593L
I21
sL4595L
I4
sL4596L
I7
sL4597L
I5
sL4598L
I19
sL4599L
I6
sL4600L
I5
sL4604L
I5
sL4606L
I5
sL4607L
I17
sL4608L
I7
sL4609L
I8
sL4610L
I24
sL4611L
I21
sL9428L
I5
sL4614L
I4
sL4615L
I10
sL4616L
I16
sL4617L
I4
sL4619L
I22
sL4620L
I6
sL4621L
I39
sL4622L
I4
sL4624L
I10
sL9974L
I6
sL4627L
I5
sL4628L
I7
sL4629L
I5
sL4630L
I7
sL4631L
I6
sL4632L
I4
sL4633L
I5
sL4634L
I8
sL4643L
I7
sL4644L
I10
sL4645L
I6
sL8735L
I4
sL4648L
I27
sL4650L
I17
sL4652L
I7
sL4654L
I9
sL4656L
I27
sL4658L
I18
sL4659L
I19
sL4660L
I11
sL4662L
I5
sL4665L
I13
sL4666L
I4
sL4667L
I14
sL4671L
I22
sL4672L
I6
sL8971L
I7
sL4676L
I7
sL4677L
I57
sL4678L
I7
sL4679L
I13
sL4680L
I4
sL4681L
I6
sL9684L
I5
sL4686L
I8
sL4687L
I5
sL4691L
I16
sL4692L
I18
sL4694L
I27
sL4695L
I4
sL4696L
I15
sL4699L
I7
sL4702L
I19
sL4704L
I4
sL4705L
I5
sL4709L
I8
sL4711L
I7
sL4712L
I15
sL4713L
I4
sL4719L
I11
sL4720L
I15
sL4721L
I5
sL8979L
I7
sL4724L
I6
sL4727L
I9
sL4728L
I43
sL4729L
I4
sL4732L
I38
sL4734L
I28
sL8341L
I10
sL4737L
I11
sL4738L
I4
sL4741L
I6
sL4743L
I24
sL4744L
I5
sL4745L
I5
sL4747L
I5
sL4748L
I7
sL4749L
I11
sL4752L
I10
sL4754L
I7
sL9160L
I7
sL4762L
I22
sL4764L
I4
sL4767L
I5
sL4768L
I43
sL8987L
I4
sL4772L
I37
sL4774L
I5
sL4775L
I6
sL4776L
I16
sL4778L
I4
sL4779L
I13
sL4780L
I8
sL4782L
I32
sL4783L
I4
sL4784L
I10
sL4785L
I8
sL4786L
I6
sL4788L
I4
sL4791L
I4
sL9434L
I4
sL4797L
I8
sL4798L
I6
sL4800L
I8
sL8992L
I4
sL4804L
I20
sL4806L
I8
sL4808L
I19
sL4809L
I6
sL4813L
I16
sL4814L
I4
sL4815L
I8
sL4817L
I4
sL9361L
I4
sL8995L
I11
sL4820L
I7
sL4822L
I7
sL4823L
I4
sL4824L
I7
sL4825L
I20
sL4826L
I4
sL4828L
I5
sL4829L
I7
sL4830L
I4
sL4833L
I5
sL4835L
I4
sL4837L
I10
sL4841L
I4
sL4843L
I7
sL4844L
I5
sL4845L
I4
sL4846L
I4
sL4847L
I22
sL4848L
I6
sL9000L
I4
sL4850L
I5
sL4851L
I4
sL4853L
I4
sL4855L
I34
sL4858L
I4
sL4859L
I22
sL4862L
I6
sL8618L
I15
sL4867L
I4
sL4870L
I43
sL4871L
I4
sL4872L
I28
sL4874L
I16
sL4875L
I4
sL4876L
I12
sL4878L
I7
sL4879L
I10
sL4881L
I4
sL4882L
I13
sL8925L
I5
sL4885L
I4
sL8346L
I22
sL4889L
I5
sL4891L
I6
sL4894L
I18
sL4895L
I6
sL9008L
I16
sL9307L
I7
sL4901L
I8
sL4902L
I4
sL4905L
I18
sL4906L
I5
sL4909L
I9
sL4910L
I5
sL4911L
I5
sL4913L
I7
sL4914L
I25
sL4915L
I26
sL4916L
I4
sL4917L
I5
sL10110L
I4
sL4923L
I6
sL4924L
I4
sL4926L
I43
sL4929L
I13
sL4930L
I6
sL4933L
I17
sL4937L
I7
sL4938L
I4
sL4939L
I12
sL8659L
I4
sL4943L
I8
sL4944L
I4
sL4947L
I4
sL4948L
I25
sL4949L
I8
sL9017L
I22
sL4953L
I6
sL4954L
I34
sL4955L
I4
sL4958L
I17
sL4959L
I19
sL4960L
I9
sL4961L
I16
sL4962L
I15
sL4963L
I5
sL4964L
I5
sL4966L
I9
sL9040L
I5
sL4969L
I4
sL4970L
I9
sL4973L
I4
sL4974L
I19
sL8359L
I4
sL4979L
I5
sL4983L
I4
sL4984L
I10
sL4986L
I17
sL9023L
I4
sL4998L
I8
sL4999L
I25
sL5000L
I5
sL5001L
I7
sL5002L
I6
sL5004L
I18
sL5009L
I16
sL5010L
I5
sL5014L
I9
sL5015L
I6
sL5017L
I5
sL5020L
I20
sL10260L
I5
sL5025L
I4
sL5029L
I25
sL5030L
I5
sL5032L
I4
sL5033L
I6
sL5040L
I19
sL5041L
I4
sL5045L
I4
sL5048L
I12
sL5051L
I20
sL5054L
I24
sL5055L
I9
sL5056L
I4
sL9066L
I9
sL5061L
I17
sL5065L
I20
sL5066L
I6
sL8352L
I42
sL5068L
I19
sL5069L
I4
sL5070L
I5
sL5071L
I11
sL5072L
I21
sL9038L
I18
sL5078L
I6
sL5079L
I9
sL5080L
I4
sL5081L
I4
sL5083L
I11
sL5084L
I5
sL5085L
I4
sL5086L
I4
sL5088L
I6
sL5089L
I18
sL5091L
I9
sL5094L
I23
sL5096L
I9
sL5097L
I4
sL9717L
I4
sL5101L
I16
sL5103L
I25
sL5105L
I5
sL5107L
I8
sL5108L
I5
sL5109L
I5
sL5110L
I4
sL10263L
I14
sL5114L
I4
sL5115L
I29
sL5116L
I4
sL5117L
I4
sL5119L
I7
sL5124L
I6
sL5125L
I23
sL5126L
I17
sL5127L
I5
sL5128L
I6
sL5130L
I27
sL5131L
I5
sL5134L
I4
sL5135L
I19
sL5136L
I6
sL5137L
I4
sL5141L
I8
sL10264L
I13
sL5143L
I5
sL5144L
I23
sL5147L
I11
sL5148L
I11
sL5150L
I29
sL5153L
I4
sL5154L
I6
sL5156L
I4
sL5159L
I13
sL5160L
I6
sL5162L
I4
sL5163L
I9
sL5164L
I19
sL5167L
I4
sL5168L
I7
sL5171L
I5
sL5172L
I8
sL5173L
I16
sL5174L
I5
sL5177L
I48
sL5178L
I4
sL5181L
I5
sL5182L
I15
sL5183L
I5
sL5184L
I9
sL8356L
I31
sL5190L
I4
sL9789L
I10
sL5193L
I5
sL9993L
I4
sL5197L
I9
sL5200L
I8
sL5201L
I4
sL9059L
I4
sL5204L
I7
sL5206L
I9
sL5207L
I16
sL5208L
I4
sL5209L
I6
sL5211L
I17
sL9448L
I11
sL5215L
I6
sL5217L
I22
sL9721L
I8
sL5220L
I19
sL5222L
I6
sL5223L
I5
sL5226L
I20
sL5227L
I6
sL5231L
I14
sL5232L
I7
sL5233L
I4
sL5234L
I5
sL5235L
I4
sL9679L
I4
sL5239L
I13
sL5242L
I5
sL5244L
I6
sL5245L
I5
sL5247L
I8
sL9722L
I5
sL5250L
I4
sL8982L
I5
sL5252L
I8
sL5253L
I4
sL8491L
I6
sL5255L
I6
sL5257L
I23
sL5258L
I8
sL5259L
I6
sL5260L
I4
sL9069L
I7
sL5266L
I4
sL9364L
I4
sL5269L
I5
sL5271L
I7
sL5277L
I6
sL5279L
I11
sL5280L
I6
sL5281L
I7
sL5282L
I14
sL5284L
I5
sL5285L
I9
sL5286L
I5
sL5287L
I7
sL5290L
I5
sL5292L
I6
sL9074L
I4
sL5294L
I7
sL5295L
I23
sL5296L
I52
sL5298L
I7
sL9075L
I9
sL5302L
I7
sL5303L
I15
sL5304L
I18
sL5305L
I8
sL5306L
I6
sL5308L
I6
sL5309L
I6
sL5311L
I4
sL5313L
I4
sL5314L
I5
sL5317L
I13
sL10019L
I5
sL5320L
I23
sL5321L
I4
sL5323L
I8
sL5325L
I11
sL5330L
I14
sL5335L
I10
sL5336L
I4
sL5338L
I4
sL5340L
I8
sL5341L
I11
sL5342L
I20
sL5343L
I4
sL5345L
I5
sL5346L
I5
sL5347L
I16
sL5348L
I6
sL5349L
I28
sL9587L
I9
sL5351L
I8
sL5352L
I8
sL9084L
I7
sL5354L
I22
sL5359L
I21
sL5360L
I5
sL5361L
I6
sL5365L
I4
sL9726L
I13
sL5370L
I6
sL5376L
I45
sL9088L
I5
sL5378L
I19
sL5380L
I20
sL5381L
I4
sL10074L
I10
sL5383L
I11
sL5385L
I6
sL5387L
I5
sL5388L
I7
sL5389L
I8
sL5390L
I7
sL5392L
I7
sL5394L
I5
sL9091L
I12
sL5397L
I7
sL5399L
I24
sL5401L
I4
sL5406L
I9
sL5407L
I9
sL5408L
I4
sL5409L
I5
sL5410L
I4
sL5411L
I33
sL5416L
I4
sL5419L
I13
sL5420L
I28
sL5423L
I4
sL5424L
I7
sL8511L
I7
sL5427L
I4
sL5428L
I6
sL5429L
I4
sL5430L
I6
sL5431L
I15
sL5432L
I5
sL5433L
I41
sL5434L
I12
sL5436L
I5
sL5437L
I5
sL5438L
I9
sL8910L
I4
sL5442L
I7
sL5443L
I6
sL5445L
I4
sL5448L
I10
sL5451L
I4
sL5452L
I8
sL5453L
I12
sL5454L
I5
sL9101L
I5
sL5458L
I5
sL5459L
I4
sL9102L
I10
sL5462L
I7
sL5463L
I5
sL5465L
I11
sL5466L
I8
sL5467L
I30
sL5472L
I6
sL5474L
I7
sL5476L
I10
sL5477L
I11
sL5479L
I34
sL5482L
I31
sL5484L
I6
sL5485L
I4
sL5488L
I6
sL5489L
I5
sL5490L
I5
sL5492L
I4
sL8639L
I4
sL5494L
I7
sL5495L
I10
sL10003L
I29
sL5499L
I4
sL5500L
I14
sL5501L
I5
sL5502L
I28
sL5503L
I4
sL5504L
I6
sL5509L
I6
sL5512L
I5
sL5513L
I26
sL5514L
I4
sL5516L
I6
sL5518L
I4
sL5520L
I7
sL8711L
I27
sL5525L
I4
sL5528L
I6
sL5529L
I8
sL5531L
I9
sL5532L
I4
sL5534L
I15
sL5536L
I7
sL5537L
I25
sL5538L
I18
sL5540L
I4
sL5542L
I8
sL5543L
I44
sL9116L
I9
sL5548L
I6
sL9966L
I4
sL5552L
I5
sL5554L
I5
sL5556L
I12
sL5558L
I10
sL5559L
I4
sL5560L
I31
sL5561L
I7
sL5566L
I7
sL5567L
I5
sL5569L
I20
sL5573L
I5
sL5577L
I7
sL5578L
I4
sL5579L
I8
sL5581L
I5
sL5582L
I6
sL8766L
I4
sL5585L
I7
sL8518L
I4
sL8275L
I10
sL5590L
I7
sL5592L
I19
sL5593L
I43
sL5594L
I9
sL5595L
I9
sL5597L
I5
sL5598L
I28
sL5600L
I5
sL9639L
I11
sL5604L
I7
sL5605L
I4
sL5606L
I20
sL5607L
I8
sL5608L
I9
sL5610L
I7
sL5611L
I15
sL5613L
I5
sL5615L
I5
sL5616L
I5
sL5617L
I24
sL5618L
I8
sL5619L
I4
sL8916L
I33
sL5624L
I5
sL5625L
I9
sL5626L
I4
sL5627L
I5
sL5628L
I6
sL9020L
I9
sL5631L
I4
sL5633L
I8
sL5634L
I9
sL5636L
I4
sL8371L
I10
sL5638L
I4
sL5640L
I10
sL5641L
I5
sL5643L
I22
sL5644L
I6
sL5645L
I27
sL5646L
I6
sL9133L
I4
sL5648L
I9
sL5650L
I4
sL5652L
I5
sL5653L
I9
sL5655L
I12
sL5656L
I7
sL5658L
I11
sL5659L
I6
sL5660L
I4
sL5662L
I4
sL9463L
I12
sL5664L
I4
sL5665L
I5
sL5666L
I25
sL5668L
I6
sL5669L
I7
sL5671L
I7
sL5672L
I5
sL5673L
I17
sL5675L
I5
sL5677L
I11
sL5678L
I7
sL5679L
I4
sL5682L
I9
sL5683L
I9
sL9585L
I13
sL5686L
I12
sL5687L
I29
sL5688L
I4
sL8660L
I10
sL5691L
I4
sL5693L
I11
sL5696L
I5
sL5701L
I26
sL5702L
I4
sL5704L
I6
sL5708L
I16
sL5709L
I4
sL5713L
I25
sL5715L
I10
sL5716L
I7
sL5717L
I7
sL5718L
I6
sL5719L
I6
sL9858L
I5
sL5721L
I4
sL5724L
I4
sL5725L
I9
sL5727L
I5
sL5728L
I9
sL5732L
I5
sL5734L
I8
sL5735L
I14
sL5736L
I5
sL5739L
I15
sL5740L
I8
sL5741L
I23
sL5743L
I38
sL5744L
I9
sL5745L
I18
sL5747L
I9
sL5748L
I9
sL9150L
I12
sL5753L
I5
sL5754L
I5
sL5755L
I4
sL5759L
I30
sL5761L
I13
sL5766L
I6
sL5767L
I37
sL5768L
I5
sL5769L
I10
sL5770L
I4
sL5772L
I6
sL5777L
I4
sL5778L
I4
sL5782L
I8
sL5783L
I12
sL5787L
I13
sL5791L
I23
sL5792L
I12
sL5793L
I5
sL5800L
I8
sL5803L
I8
sL5804L
I5
sL5806L
I7
sL9195L
I12
sL5809L
I4
sL5810L
I11
sL5811L
I9
sL5814L
I14
sL5815L
I4
sL5821L
I14
sL5822L
I5
sL5824L
I4
sL10258L
I6
sL5826L
I4
sL5827L
I5
sL5828L
I10
sL5830L
I6
sL5832L
I13
sL5834L
I8
sL5835L
I9
sL5836L
I4
sL5839L
I7
sL5840L
I6
sL9525L
I18
sL5843L
I5
sL5845L
I19
sL5847L
I9
sL5848L
I10
sL5850L
I4
sL5852L
I23
sL5854L
I7
sL5856L
I9
sL5858L
I6
sL5859L
I9
sL8933L
I11
sL5866L
I4
sL5868L
I7
sL9170L
I22
sL5870L
I17
sL10097L
I13
sL5872L
I7
sL5873L
I18
sL9171L
I4
sL5876L
I7
sL5877L
I4
sL5878L
I19
sL5881L
I6
sL5882L
I24
sL5883L
I6
sL5888L
I6
sL5890L
I5
sL8322L
I5
sL5896L
I23
sL5898L
I4
sL5899L
I20
sL5900L
I12
sL5901L
I24
sL5903L
I5
sL5905L
I11
sL5906L
I7
sL5908L
I4
sL5910L
I11
sL5911L
I6
sL5913L
I5
sL5914L
I6
sL5918L
I4
sL5919L
I5
sL5923L
I4
sL5924L
I15
sL5925L
I13
sL5928L
I13
sL5932L
I5
sL5933L
I4
sL5934L
I7
sL5936L
I4
sL8381L
I7
sL5940L
I5
sL5942L
I5
sL5943L
I7
sL5945L
I27
sL5950L
I9
sL5952L
I5
sL5954L
I4
sL5955L
I8
sL5957L
I14
sL5958L
I11
sL5959L
I21
sL5960L
I5
sL5962L
I4
sL5964L
I27
sL5968L
I7
sL5969L
I7
sL9746L
I25
sL5971L
I9
sL5972L
I15
sL5973L
I7
sL5974L
I16
sL5976L
I17
sL9188L
I12
sL5978L
I4
sL5979L
I4
sL5980L
I6
sL5982L
I17
sL5983L
I11
sL5985L
I23
sL5986L
I10
sL5987L
I5
sL9190L
I9
sL5990L
I6
sL5991L
I5
sL5992L
I20
sL5993L
I8
sL9474L
I5
sL5998L
I6
sL5999L
I8
sL6000L
I13
sL6002L
I27
sL6004L
I16
sL6005L
I4
sL10020L
I9
sL6009L
I16
sL6010L
I9
sL6011L
I11
sL6013L
I14
sL6014L
I5
sL6015L
I7
sL6018L
I8
sL6019L
I14
sL6020L
I6
sL6021L
I5
sL6022L
I9
sL6023L
I9
sL8384L
I6
sL6029L
I5
sL8905L
I9
sL6031L
I6
sL6033L
I6
sL6034L
I26
sL6035L
I22
sL6036L
I4
sL9198L
I20
sL6041L
I10
sL6042L
I13
sL6047L
I6
sL6048L
I19
sL6049L
I12
sL6052L
I5
sL6053L
I4
sL6054L
I6
sL6057L
I5
sL6058L
I9
sL6061L
I5
sL6062L
I21
sL8966L
I4
sL6066L
I4
sL6068L
I6
sL6070L
I12
sL6076L
I28
sL6077L
I15
sL6080L
I12
sL6081L
I11
sL6082L
I17
sL6083L
I10
sL6084L
I5
sL6086L
I4
sL6087L
I6
sL6088L
I14
sL9750L
I4
sL6092L
I6
sL6093L
I4
sL6094L
I14
sL6096L
I5
sL6097L
I7
sL6099L
I20
sL6100L
I4
sL6101L
I22
sL6102L
I5
sL6105L
I5
sL6106L
I19
sL6107L
I4
sL6109L
I13
sL6112L
I19
sL6113L
I4
sL6114L
I37
sL6115L
I32
sL6121L
I9
sL6124L
I5
sL6125L
I9
sL6128L
I6
sL6130L
I4
sL6131L
I4
sL6133L
I19
sL6134L
I4
sL6135L
I7
sL8486L
I4
sL6138L
I5
sL6139L
I20
sL6142L
I7
sL6143L
I4
sL6146L
I6
sL6147L
I6
sL6148L
I4
sL6149L
I9
sL6151L
I5
sL6152L
I26
sL6154L
I30
sL6155L
I6
sL6156L
I5
sL6160L
I16
sL6162L
I25
sL6163L
I18
sL6164L
I12
sL6167L
I5
sL6168L
I4
sL6169L
I23
sL6170L
I14
sL6172L
I4
sL6175L
I4
sL9753L
I14
sL6181L
I13
sL6182L
I6
sL6183L
I9
sL6187L
I4
sL6189L
I10
sL6190L
I4
sL6192L
I4
sL6194L
I22
sL6195L
I6
sL9225L
I20
sL9719L
I12
sL6202L
I5
sL6204L
I10
sL6205L
I9
sL6207L
I5
sL6208L
I12
sL6209L
I14
sL6210L
I10
sL9227L
I8
sL6212L
I4
sL6213L
I11
sL6217L
I6
sL6219L
I7
sL6220L
I4
sL6223L
I7
sL6224L
I6
sL6226L
I4
sL6228L
I24
sL6229L
I9
sL6231L
I5
sL6233L
I4
sL6234L
I6
sL9231L
I4
sL6237L
I5
sL6238L
I12
sL6240L
I4
sL6241L
I20
sL6244L
I4
sL6248L
I5
sL6249L
I4
sL6252L
I4
sL6253L
I4
sL6255L
I7
sL6257L
I4
sL6259L
I4
sL6261L
I28
sL6262L
I6
sL6263L
I4
sL6264L
I12
sL9236L
I7
sL6266L
I11
sL6267L
I5
sL6270L
I4
sL6272L
I4
sL6280L
I5
sL6284L
I6
sL6286L
I4
sL9098L
I24
sL6289L
I16
sL6291L
I7
sL6293L
I21
sL6297L
I4
sL6300L
I7
sL9242L
I10
sL6302L
I7
sL6305L
I7
sL6307L
I10
sL6308L
I39
sL6313L
I43
sL6314L
I19
sL6318L
I5
sL9245L
I7
sL9010L
I4
sL6325L
I18
sL6328L
I7
sL9247L
I4
sL6335L
I8
sL6336L
I5
sL8280L
I33
sL6340L
I12
sL9249L
I5
sL6347L
I8
sL6348L
I19
sL6350L
I30
sL6351L
I14
sL6352L
I4
sL6353L
I13
sL6354L
I5
sL6355L
I4
sL6357L
I4
sL6359L
I13
sL6360L
I6
sL6362L
I10
sL6364L
I4
sL6366L
I6
sL9253L
I6
sL6368L
I22
sL6370L
I10
sL6371L
I12
sL6375L
I24
sL6376L
I4
sL6377L
I6
sL6378L
I4
sL6382L
I5
sL6383L
I11
sL6386L
I5
sL9616L
I5
sL6388L
I26
sL6389L
I4
sL9257L
I13
sL6393L
I4
sL6394L
I4
sL6395L
I26
sL6396L
I4
sL6399L
I10
sL6400L
I4
sL9808L
I4
sL6403L
I4
sL6404L
I4
sL9317L
I15
sL9215L
I6
sL6408L
I30
sL8521L
I8
sL6415L
I4
sL6417L
I7
sL6418L
I7
sL6420L
I6
sL9262L
I4
sL6422L
I6
sL6423L
I4
sL6424L
I19
sL6425L
I8
sL6427L
I5
sL6430L
I6
sL6433L
I6
sL6434L
I6
sL6440L
I4
sL6441L
I16
sL6444L
I6
sL6445L
I5
sL6448L
I7
sL6453L
I7
sL6455L
I8
sL9268L
I4
sL6460L
I7
sL6462L
I12
sL6463L
I9
sL6465L
I22
sL6466L
I7
sL9217L
I4
sL6471L
I5
sL6472L
I7
sL9271L
I8
sL6478L
I5
sL6480L
I4
sL6481L
I5
sL9754L
I5
sL6485L
I4
sL6487L
I7
sL6490L
I13
sL6491L
I10
sL6494L
I4
sL6495L
I5
sL6497L
I18
sL6500L
I19
sL6501L
I7
sL6504L
I6
sL9276L
I4
sL6508L
I5
sL6511L
I4
sL6512L
I7
sL6517L
I5
sL6518L
I4
sL6519L
I5
sL8946L
I15
sL6523L
I11
sL6525L
I4
sL6526L
I5
sL6527L
I8
sL6528L
I23
sL6530L
I20
sL6531L
I19
sL6533L
I7
sL9427L
I4
sL6539L
I5
sL9282L
I4
sL6542L
I13
sL6544L
I5
sL6545L
I14
sL6546L
I5
sL9283L
I4
sL6551L
I4
sL6553L
I9
sL6554L
I4
sL6555L
I17
sL6558L
I6
sL6559L
I4
sL6560L
I22
sL6562L
I22
sL6564L
I9
sL6565L
I17
sL6566L
I4
sL6567L
I6
sL6568L
I5
sL6570L
I24
sL6571L
I8
sL6572L
I4
sL6573L
I5
sL6575L
I15
sL6576L
I6
sL6577L
I4
sL6578L
I4
sL6580L
I5
sL8948L
I25
sL6582L
I8
sL6584L
I5
sL6585L
I9
sL6588L
I5
sL6590L
I21
sL6591L
I5
sL6593L
I11
sL6599L
I8
sL6600L
I5
sL6602L
I5
sL6604L
I23
sL6606L
I12
sL6608L
I10
sL6609L
I10
sL6611L
I9
sL6612L
I4
sL6617L
I6
sL6618L
I9
sL6621L
I4
sL6622L
I5
sL6625L
I5
sL6630L
I5
sL6632L
I9
sL6633L
I26
sL6635L
I6
sL6636L
I4
sL9264L
I37
sL8773L
I7
sL6648L
I22
sL6650L
I4
sL6652L
I8
sL6653L
I34
sL9301L
I8
sL6657L
I4
sL8405L
I23
sL6660L
I6
sL9065L
I20
sL6666L
I7
sL6667L
I22
sL6669L
I5
sL6670L
I32
sL6672L
I6
sL6677L
I11
sL6679L
I8
sL6680L
I21
sL6682L
I18
sL6684L
I19
sL6685L
I6
sL6686L
I11
sL6687L
I8
sL6688L
I5
sL6689L
I5
sL6691L
I21
sL6694L
I4
sL9308L
I7
sL6698L
I10
sL6699L
I11
sL6700L
I5
sL6702L
I6
sL6703L
I5
sL6705L
I4
sL6709L
I5
sL6710L
I5
sL6711L
I9
sL6713L
I35
sL6714L
I11
sL6715L
I7
sL6716L
I7
sL6717L
I6
sL6718L
I6
sL9771L
I8
sL6722L
I4
sL6723L
I5
sL6727L
I7
sL6728L
I5
sL6730L
I7
sL6731L
I6
sL6733L
I4
sL6734L
I14
sL9592L
I6
sL6736L
I4
sL6738L
I12
sL6739L
I9
sL6740L
I4
sL9499L
I16
sL6745L
I15
sL6746L
I6
sL6749L
I7
sL6750L
I4
sL6751L
I11
sL6752L
I6
sL6756L
I9
sL9835L
I5
sL6758L
I7
sL6759L
I6
sL6760L
I7
sL6761L
I19
sL6763L
I9
sL6769L
I6
sL6771L
I4
sL6772L
I4
sL6774L
I6
sL6775L
I4
sL6776L
I7
sL6777L
I4
sL6780L
I5
sL6781L
I7
sL6789L
I8
sL6793L
I13
sL6794L
I7
sL9325L
I21
sL6800L
I24
sL6802L
I5
sL6805L
I6
sL6806L
I5
sL6807L
I5
sL6813L
I16
sL6815L
I4
sL6816L
I6
sL6817L
I6
sL8956L
I5
sL6822L
I7
sL9330L
I4
sL6830L
I6
sL6831L
I4
sL6833L
I17
sL6836L
I35
sL6838L
I11
sL10023L
I4
sL9332L
I13
sL6842L
I14
sL6843L
I4
sL6844L
I8
sL6845L
I14
sL6846L
I5
sL6847L
I4
sL6848L
I7
sL6850L
I8
sL6851L
I4
sL6853L
I7
sL6855L
I17
sL6856L
I5
sL9230L
I4
sL9335L
I6
sL6861L
I4
sL6863L
I7
sL6864L
I11
sL6865L
I4
sL6869L
I17
sL9337L
I4
sL6872L
I5
sL9338L
I6
sL6878L
I5
sL6880L
I6
sL6881L
I8
sL6882L
I5
sL6883L
I8
sL9840L
I11
sL9593L
I9
sL6887L
I8
sL6889L
I12
sL6890L
I7
sL6891L
I5
sL6892L
I4
sL6894L
I6
sL6895L
I8
sL6898L
I6
sL6900L
I4
sL9342L
I4
sL6903L
I7
sL6905L
I12
sL6906L
I7
sL6911L
I15
sL6913L
I32
sL6915L
I10
sL6916L
I4
sL6919L
I4
sL6920L
I6
sL6922L
I5
sL6924L
I7
sL6925L
I5
sL6928L
I4
sL9812L
I17
sL6931L
I6
sL6932L
I7
sL6933L
I16
sL6934L
I7
sL6936L
I34
sL6937L
I16
sL6938L
I9
sL6939L
I12
sL6940L
I4
sL6941L
I6
sL8960L
I6
sL9349L
I7
sL6945L
I9
sL6946L
I7
sL6948L
I5
sL6949L
I8
sL6951L
I9
sL6952L
I6
sL9157L
I5
sL6957L
I15
sL6958L
I32
sL6959L
I6
sL6961L
I22
sL6962L
I6
sL6963L
I7
sL6965L
I4
sL6967L
I5
sL6968L
I5
sL6969L
I4
sL6971L
I7
sL6972L
I11
sL9354L
I5
sL6976L
I7
sL6984L
I13
sL9356L
I4
sL6988L
I4
sL6989L
I7
sL6991L
I4
sL6993L
I16
sL6996L
I10
sL6998L
I13
sL7000L
I4
sL7001L
I4
sL7002L
I18
sL7003L
I4
sL7004L
I9
sL7005L
I4
sL7012L
I4
sL9305L
I4
sL7014L
I8
sL7015L
I6
sL7016L
I10
sL7017L
I34
sL7018L
I4
sL8417L
I6
sL9781L
I5
sL7024L
I12
sL7032L
I8
sL7033L
I4
sL7036L
I9
sL7037L
I5
sL7038L
I7
sL7039L
I5
sL7040L
I6
sL7043L
I6
sL9366L
I5
sL9622L
I6
sL7052L
I36
sL7053L
I10
sL7056L
I27
sL9368L
I15
sL7059L
I19
sL7060L
I20
sL7061L
I5
sL7062L
I8
sL7065L
I28
sL7066L
I19
sL7069L
I4
sL7070L
I33
sL7074L
I40
sL7075L
I15
sL7076L
I6
sL7077L
I6
sL7078L
I4
sL7081L
I10
sL7082L
I4
sL7083L
I5
sL8692L
I18
sL7087L
I7
sL7090L
I6
sL7093L
I4
sL7094L
I4
sL7096L
I5
sL7097L
I4
sL7099L
I9
sL7101L
I16
sL7103L
I8
sL7104L
I5
sL7106L
I6
sL7107L
I4
sL7109L
I7
sL7110L
I11
sL7111L
I15
sL7113L
I7
sL7115L
I7
sL7118L
I4
sL7121L
I4
sL7122L
I15
sL7123L
I7
sL7125L
I6
sL9309L
I5
sL7128L
I6
sL7129L
I21
sL7130L
I5
sL7131L
I7
sL7132L
I8
sL7133L
I22
sL7134L
I7
sL7135L
I34
sL7139L
I9
sL7140L
I7
sL7142L
I19
sL9852L
I26
sL7145L
I4
sL7147L
I17
sL7149L
I4
sL7150L
I21
sL7152L
I4
sL7153L
I40
sL7154L
I19
sL9322L
I12
sL7157L
I7
sL7159L
I20
sL7167L
I5
sL9704L
I6
sL7172L
I18
sL7173L
I5
sL10135L
I6
sL7177L
I16
sL10059L
I6
sL7180L
I7
sL7181L
I4
sL7182L
I6
sL7183L
I13
sL7186L
I6
sL7189L
I4
sL7190L
I12
sL7191L
I21
sL7192L
I7
sL7193L
I6
sL7194L
I5
sL7196L
I6
sL7197L
I4
sL7198L
I7
sL7200L
I4
sL7201L
I7
sL7202L
I5
sL7204L
I17
sL7205L
I12
sL7207L
I7
sL7209L
I12
sL7210L
I15
sL7211L
I4
sL7213L
I5
sL7214L
I8
sL7216L
I6
sL9395L
I6
sL9868L
I7
sL7221L
I17
sL7223L
I22
sL7224L
I6
sL9396L
I9
sL7227L
I7
sL7228L
I4
sL7230L
I4
sL7232L
I13
sL7233L
I5
sL7234L
I5
sL7235L
I39
sL7237L
I5
sL7240L
I36
sL7242L
I21
sL7243L
I5
sL7244L
I14
sL7246L
I5
sL7247L
I5
sL9243L
I4
sL7249L
I4
sL7251L
I13
sL7257L
I4
sL7258L
I4
sL9535L
I20
sL9402L
I15
sL7262L
I31
sL7263L
I17
sL7265L
I8
sL7266L
I4
sL7267L
I4
sL7269L
I5
sL7270L
I19
sL7271L
I9
sL7273L
I5
sL7274L
I7
sL7275L
I15
sL7276L
I15
sL7278L
I17
sL7281L
I20
sL7282L
I23
sL7283L
I18
sL7284L
I10
sL9406L
I5
sL7288L
I7
sL9407L
I4
sL7292L
I7
sL7293L
I18
sL7294L
I7
sL7295L
I8
sL7298L
I10
sL7299L
I4
sL7300L
I4
sL7301L
I6
sL7305L
I7
sL7307L
I6
sL7308L
I13
sL7310L
I16
sL7313L
I6
sL7316L
I22
sL7318L
I4
sL7321L
I14
sL7322L
I11
sL7324L
I5
sL7325L
I5
sL9311L
I4
sL7327L
I4
sL7328L
I4
sL7329L
I18
sL7330L
I4
sL7332L
I14
sL7333L
I8
sL7336L
I4
sL7338L
I21
sL7339L
I7
sL7341L
I5
sL7342L
I4
sL7343L
I5
sL7344L
I8
sL9416L
I5
sL7348L
I4
sL7349L
I11
sL9978L
I8
sL9792L
I4
sL7353L
I6
sL7355L
I18
sL7356L
I17
sL7357L
I28
sL7358L
I5
sL7360L
I17
sL7361L
I5
sL7362L
I9
sL7363L
I11
sL7364L
I5
sL7366L
I11
sL7367L
I19
sL7368L
I5
sL7369L
I7
sL9869L
I34
sL7373L
I20
sL10168L
I16
sL7375L
I8
sL7377L
I24
sL7378L
I19
sL7379L
I4
sL7381L
I6
sL7382L
I7
sL7383L
I8
sL7384L
I7
sL7385L
I27
sL7387L
I4
sL7390L
I6
sL8975L
I17
sL7397L
I5
sL7403L
I5
sL7404L
I8
sL7407L
I6
sL7409L
I7
sL7410L
I12
sL7411L
I16
sL7412L
I5
sL7413L
I5
sL7414L
I19
sL7417L
I18
sL7418L
I5
sL7419L
I4
sL8976L
I5
sL7425L
I11
sL7426L
I8
sL7434L
I14
sL7435L
I7
sL9433L
I11
sL7438L
I5
sL7439L
I4
sL7440L
I6
sL7441L
I5
sL7442L
I4
sL7444L
I7
sL7445L
I10
sL7446L
I4
sL7447L
I16
sL7448L
I4
sL7449L
I23
sL7453L
I6
sL7454L
I4
sL7455L
I8
sL7456L
I11
sL7457L
I5
sL7459L
I16
sL7460L
I6
sL7461L
I7
sL7465L
I6
sL7466L
I4
sL7471L
I15
sL7472L
I5
sL7473L
I41
sL7476L
I6
sL7477L
I5
sL7479L
I6
sL7480L
I5
sL7482L
I4
sL7486L
I9
sL7487L
I23
sL7489L
I4
sL7493L
I7
sL7495L
I6
sL7497L
I13
sL9979L
I8
sL7502L
I6
sL7504L
I35
sL7506L
I5
sL7511L
I5
sL7512L
I4
sL9444L
I18
sL7514L
I4
sL9272L
I11
sL7517L
I21
sL7518L
I6
sL7520L
I7
sL7522L
I14
sL7523L
I11
sL7524L
I5
sL7525L
I4
sL7528L
I12
sL7530L
I17
sL7531L
I5
sL9798L
I31
sL7535L
I12
sL7536L
I5
sL7537L
I11
sL7539L
I4
sL7540L
I5
sL7542L
I4
sL7543L
I4
sL7546L
I4
sL7547L
I12
sL7548L
I5
sL9450L
I6
sL10134L
I4
sL7551L
I16
sL7552L
I4
sL8670L
I15
sL7557L
I24
sL7559L
I13
sL7560L
I4
sL9452L
I6
sL7562L
I8
sL7565L
I4
sL9339L
I10
sL9453L
I4
sL7569L
I5
sL7570L
I12
sL7571L
I9
sL7572L
I5
sL7573L
I5
sL7576L
I12
sL7577L
I16
sL7579L
I5
sL7582L
I16
sL7583L
I6
sL7585L
I5
sL7586L
I9
sL7587L
I4
sL7589L
I7
sL7590L
I19
sL7594L
I15
sL7595L
I6
sL7596L
I7
sL7599L
I8
sL7600L
I6
sL7602L
I7
sL7605L
I6
sL7606L
I5
sL7607L
I5
sL7608L
I24
sL9460L
I10
sL7610L
I7
sL7612L
I4
sL7613L
I6
sL7615L
I17
sL7617L
I6
sL7618L
I9
sL7619L
I10
sL7620L
I7
sL9462L
I12
sL7622L
I14
sL7624L
I15
sL7625L
I4
sL7626L
I5
sL7627L
I5
sL7628L
I7
sL7629L
I4
sL7632L
I8
sL7633L
I4
sL7634L
I34
sL7637L
I4
sL7638L
I4
sL7639L
I5
sL7640L
I11
sL7642L
I13
sL7643L
I8
sL7644L
I5
sL7647L
I4
sL7651L
I4
sL7653L
I9
sL7654L
I4
sL7655L
I6
sL7656L
I20
sL7658L
I5
sL8248L
I10
sL7663L
I4
sL7664L
I14
sL7665L
I4
sL7667L
I4
sL7668L
I5
sL7669L
I4
sL7670L
I6
sL8398L
I10
sL7674L
I5
sL7675L
I4
sL7677L
I7
sL7680L
I11
sL7684L
I11
sL7685L
I4
sL7686L
I14
sL7689L
I4
sL7690L
I5
sL7692L
I5
sL7693L
I5
sL7694L
I8
sL7695L
I12
sL7696L
I6
sL7697L
I13
sL8565L
I19
sL7699L
I4
sL7700L
I4
sL7701L
I20
sL7702L
I5
sL7703L
I40
sL7704L
I5
sL7705L
I21
sL7706L
I5
sL7709L
I4
sL9477L
I5
sL7713L
I27
sL7714L
I16
sL7715L
I4
sL7717L
I15
sL7718L
I4
sL7720L
I4
sL7721L
I17
sL7722L
I13
sL9929L
I34
sL9359L
I4
sL7727L
I5
sL7728L
I7
sL7730L
I4
sL7732L
I7
sL7734L
I16
sL7735L
I7
sL7736L
I5
sL8441L
I8
sL7741L
I5
sL7744L
I21
sL7746L
I12
sL7747L
I21
sL7749L
I7
sL7750L
I5
sL7751L
I7
sL7753L
I5
sL9326L
I8
sL7758L
I4
sL7759L
I12
sL7764L
I5
sL7765L
I9
sL7769L
I4
sL7770L
I8
sL7771L
I7
sL7774L
I4
sL7775L
I4
sL7776L
I8
sL9488L
I16
sL7778L
I4
sL7780L
I6
sL7781L
I12
sL7783L
I41
sL9599L
I4
sL7788L
I13
sL7789L
I10
sL7790L
I5
sL7791L
I4
sL7792L
I4
sL7793L
I5
sL7794L
I35
sL7795L
I16
sL7798L
I4
sL8443L
I13
sL7801L
I6
sL7802L
I6
sL7806L
I6
sL7807L
I14
sL7808L
I4
sL7809L
I5
sL7811L
I26
sL7812L
I6
sL7813L
I35
sL7814L
I24
sL7817L
I12
sL7819L
I8
sL9872L
I11
sL7822L
I4
sL7823L
I26
sL8641L
I5
sL7825L
I4
sL7829L
I12
sL7831L
I6
sL7832L
I26
sL7835L
I5
sL7836L
I13
sL7837L
I32
sL7840L
I4
sL7842L
I5
sL7843L
I4
sL7844L
I4
sL7846L
I6
sL7848L
I5
sL9263L
I27
sL7850L
I21
sL7852L
I10
sL7853L
I8
sL7855L
I4
sL9536L
I10
sL7857L
I6
sL7858L
I6
sL7859L
I4
sL7860L
I6
sL7861L
I16
sL7862L
I5
sL7863L
I44
sL7865L
I6
sL7866L
I5
sL7867L
I4
sL7869L
I4
sL7870L
I8
sL7871L
I5
sL7872L
I6
sL7873L
I4
sL7879L
I5
sL7880L
I4
sL7881L
I4
sL7882L
I4
sL7883L
I9
sL7884L
I5
sL7886L
I7
sL7888L
I12
sL7889L
I4
sL7891L
I5
sL7895L
I6
sL7896L
I4
sL7897L
I15
sL7898L
I4
sL10083L
I5
sL7900L
I5
sL7906L
I11
sL7907L
I13
sL7909L
I4
sL7910L
I19
sL7911L
I6
sL7914L
I22
sL7915L
I4
sL7917L
I22
sL7918L
I17
sL7921L
I16
sL7925L
I5
sL9513L
I20
sL7930L
I14
sL7931L
I7
sL7935L
I15
sL9266L
I5
sL7940L
I7
sL7941L
I11
sL7942L
I4
sL7943L
I5
sL9875L
I4
sL7948L
I16
sL7949L
I13
sL7952L
I6
sL7953L
I16
sL9491L
I8
sL8721L
I8
sL7960L
I8
sL7964L
I10
sL7967L
I5
sL7968L
I7
sL7969L
I4
sL7970L
I19
sL7971L
I9
sL7972L
I5
sL7976L
I6
sL7977L
I9
sL7978L
I26
sL7979L
I5
sL9813L
I14
sL7986L
I6
sL7989L
I5
sL7990L
I23
sL9524L
I6
sL7995L
I16
sL7999L
I9
sL9285L
I6
sL8003L
I7
sL8004L
I25
sL8005L
I4
sL8009L
I4
sL8013L
I4
sL8016L
I10
sL8017L
I11
sL8020L
I7
sL8022L
I8
sL8029L
I8
sL9699L
I8
sL8034L
I6
sL9531L
I11
sL9437L
I4
sL9067L
I5
sL8039L
I4
sL8040L
I18
sL8041L
I24
sL8043L
I7
sL8048L
I8
sL8050L
I4
sL8054L
I5
sL8055L
I5
sL8059L
I5
sL8060L
I23
sL8061L
I6
sL8062L
I7
sL8065L
I5
sL8066L
I4
sL8069L
I25
sL8070L
I8
sL8071L
I5
sL8072L
I8
sL8073L
I4
sL8075L
I16
sL8078L
I20
sL9373L
I5
sL9539L
I6
sL8084L
I5
sL8085L
I9
sL8089L
I28
sL8090L
I19
sL8092L
I15
sL8093L
I5
sL8094L
I4
sL8096L
I4
sL8871L
I17
sL8099L
I7
sL9471L
I4
sL8106L
I5
sL8107L
I17
sL8108L
I6
sL8109L
I18
sL8111L
I13
sL8113L
I6
sL8114L
I5
sL8116L
I6
sL8117L
I12
sL8118L
I5
sL8119L
I19
sL8122L
I16
sL8123L
I5
sL8124L
I4
sL8125L
I5
sL8126L
I4
sL8130L
I7
sL9547L
I6
sL8132L
I5
sL8135L
I5
sL8138L
I5
sL8139L
I5
sL8140L
I8
sL8141L
I15
sL8142L
I10
sL8143L
I7
sL8147L
I8
sL8149L
I4
sL8153L
I6
sL8154L
I4
sL8155L
I7
sL8157L
I4
sL8159L
I4
sL8161L
I6
sL8162L
I5
sL8164L
I8
sL8165L
I12
sL8166L
I8
sL8167L
I13
sL8170L
I28
sL8171L
I6
sL8172L
I8
sL8173L
I20
sL8175L
I5
sL8176L
I6
sL8177L
I7
sL8178L
I4
sL9555L
I7
sL8180L
I11
sL8181L
I8
sL8182L
I21
sL8183L
I4
sL8184L
I5
sL8188L
I4
sL8189L
I6
sL8190L
I23
sL8191L
I4
s.