(lp0
L1L
aL2L
aL3L
aL4L
aL5L
aL6L
aL7L
aL8L
aL9L
aL10L
aL11L
aL12L
aL13L
aL14L
aL15L
aL16L
aL17L
aL18L
aL19L
aL20L
aL21L
aL22L
aL23L
aL24L
aL25L
aL26L
aL27L
aL28L
aL29L
aL30L
aL31L
aL32L
aL33L
aL34L
aL35L
aL36L
aL37L
aL38L
aL39L
aL40L
aL41L
aL42L
aL43L
aL44L
aL45L
aL46L
aL47L
aL48L
aL49L
aL50L
aL51L
aL52L
aL53L
aL54L
aL55L
aL56L
aL57L
aL58L
aL59L
aL60L
aL61L
aL62L
aL63L
aL64L
aL65L
aL66L
aL67L
aL68L
aL69L
aL70L
aL71L
aL72L
aL73L
aL74L
aL75L
aL76L
aL77L
aL78L
aL79L
aL80L
aL81L
aL82L
aL83L
aL84L
aL85L
aL86L
aL87L
aL88L
aL89L
aL90L
aL91L
aL92L
aL93L
aL94L
aL95L
aL96L
aL97L
aL98L
aL99L
aL100L
aL101L
aL102L
aL103L
aL104L
aL105L
aL106L
aL107L
aL108L
aL109L
aL110L
aL111L
aL112L
aL113L
aL114L
aL115L
aL116L
aL117L
aL118L
aL119L
aL120L
aL121L
aL122L
aL123L
aL124L
aL125L
aL126L
aL127L
aL128L
aL129L
aL130L
aL131L
aL132L
aL133L
aL134L
aL135L
aL136L
aL137L
aL138L
aL139L
aL140L
aL141L
aL142L
aL143L
aL144L
aL145L
aL146L
aL147L
aL148L
aL149L
aL150L
aL151L
aL152L
aL153L
aL154L
aL155L
aL156L
aL157L
aL158L
aL159L
aL160L
aL161L
aL162L
aL163L
aL164L
aL165L
aL166L
aL167L
aL168L
aL169L
aL170L
aL171L
aL172L
aL173L
aL174L
aL175L
aL176L
aL177L
aL178L
aL179L
aL180L
aL181L
aL182L
aL183L
aL184L
aL185L
aL186L
aL187L
aL188L
aL189L
aL190L
aL191L
aL192L
aL193L
aL194L
aL195L
aL196L
aL197L
aL198L
aL199L
aL200L
aL201L
aL202L
aL203L
aL204L
aL205L
aL206L
aL207L
aL208L
aL209L
aL210L
aL211L
aL212L
aL213L
aL214L
aL215L
aL216L
aL217L
aL218L
aL219L
aL220L
aL221L
aL222L
aL223L
aL224L
aL225L
aL226L
aL227L
aL228L
aL229L
aL230L
aL231L
aL232L
aL233L
aL234L
aL235L
aL236L
aL237L
aL238L
aL239L
aL240L
aL241L
aL242L
aL243L
aL244L
aL245L
aL246L
aL247L
aL248L
aL249L
aL250L
aL251L
aL252L
aL253L
aL254L
aL255L
aL256L
aL257L
aL258L
aL259L
aL260L
aL261L
aL262L
aL263L
aL264L
aL265L
aL266L
aL267L
aL268L
aL269L
aL270L
aL271L
aL272L
aL273L
aL274L
aL275L
aL276L
aL277L
aL278L
aL279L
aL280L
aL281L
aL282L
aL283L
aL284L
aL285L
aL286L
aL287L
aL288L
aL289L
aL290L
aL291L
aL292L
aL293L
aL294L
aL295L
aL296L
aL297L
aL298L
aL299L
aL300L
aL301L
aL302L
aL303L
aL304L
aL305L
aL306L
aL307L
aL308L
aL309L
aL310L
aL311L
aL312L
aL313L
aL314L
aL315L
aL316L
aL317L
aL318L
aL319L
aL320L
aL321L
aL322L
aL323L
aL324L
aL325L
aL326L
aL327L
aL328L
aL329L
aL330L
aL331L
aL332L
aL333L
aL334L
aL335L
aL336L
aL337L
aL338L
aL339L
aL340L
aL341L
aL342L
aL343L
aL344L
aL345L
aL346L
aL347L
aL348L
aL349L
aL350L
aL351L
aL352L
aL353L
aL354L
aL355L
aL356L
aL357L
aL358L
aL359L
aL360L
aL361L
aL362L
aL363L
aL364L
aL365L
aL366L
aL367L
aL368L
aL369L
aL370L
aL371L
aL372L
aL373L
aL374L
aL375L
aL376L
aL377L
aL378L
aL379L
aL380L
aL381L
aL382L
aL383L
aL384L
aL385L
aL386L
aL387L
aL388L
aL389L
aL390L
aL391L
aL392L
aL393L
aL394L
aL395L
aL396L
aL397L
aL398L
aL399L
aL400L
aL401L
aL402L
aL403L
aL404L
aL405L
aL406L
aL407L
aL408L
aL409L
aL410L
aL411L
aL412L
aL413L
aL414L
aL415L
aL416L
aL417L
aL418L
aL419L
aL420L
aL421L
aL422L
aL423L
aL424L
aL425L
aL426L
aL427L
aL428L
aL429L
aL430L
aL431L
aL432L
aL433L
aL434L
aL435L
aL436L
aL437L
aL438L
aL439L
aL440L
aL441L
aL442L
aL443L
aL444L
aL445L
aL446L
aL447L
aL448L
aL449L
aL450L
aL451L
aL452L
aL453L
aL454L
aL455L
aL456L
aL457L
aL458L
aL459L
aL460L
aL461L
aL462L
aL463L
aL464L
aL465L
aL466L
aL467L
aL468L
aL469L
aL470L
aL471L
aL472L
aL473L
aL474L
aL475L
aL476L
aL477L
aL478L
aL479L
aL480L
aL481L
aL482L
aL483L
aL484L
aL485L
aL486L
aL487L
aL488L
aL489L
aL490L
aL491L
aL492L
aL493L
aL494L
aL495L
aL496L
aL497L
aL498L
aL499L
aL500L
aL501L
aL502L
aL503L
aL504L
aL505L
aL506L
aL507L
aL508L
aL509L
aL510L
aL511L
aL512L
aL513L
aL514L
aL515L
aL516L
aL517L
aL518L
aL519L
aL520L
aL521L
aL522L
aL523L
aL524L
aL525L
aL526L
aL527L
aL528L
aL529L
aL530L
aL531L
aL532L
aL533L
aL534L
aL535L
aL536L
aL537L
aL538L
aL539L
aL540L
aL541L
aL542L
aL543L
aL544L
aL545L
aL546L
aL547L
aL548L
aL549L
aL550L
aL551L
aL552L
aL553L
aL554L
aL555L
aL556L
aL557L
aL558L
aL559L
aL560L
aL561L
aL562L
aL563L
aL564L
aL565L
aL566L
aL567L
aL568L
aL569L
aL570L
aL571L
aL572L
aL573L
aL574L
aL575L
aL576L
aL577L
aL578L
aL579L
aL580L
aL581L
aL582L
aL583L
aL584L
aL585L
aL586L
aL587L
aL588L
aL589L
aL590L
aL591L
aL592L
aL593L
aL594L
aL595L
aL596L
aL597L
aL598L
aL599L
aL600L
aL601L
aL602L
aL603L
aL604L
aL605L
aL606L
aL607L
aL608L
aL609L
aL610L
aL611L
aL612L
aL613L
aL614L
aL615L
aL616L
aL617L
aL618L
aL619L
aL620L
aL621L
aL622L
aL623L
aL624L
aL625L
aL626L
aL627L
aL628L
aL629L
aL630L
aL631L
aL632L
aL633L
aL634L
aL635L
aL636L
aL637L
aL638L
aL639L
aL640L
aL641L
aL642L
aL643L
aL644L
aL645L
aL646L
aL647L
aL648L
aL649L
aL650L
aL651L
aL652L
aL653L
aL654L
aL655L
aL656L
aL657L
aL658L
aL659L
aL660L
aL661L
aL662L
aL663L
aL664L
aL665L
aL666L
aL667L
aL668L
aL669L
aL670L
aL671L
aL672L
aL673L
aL674L
aL675L
aL676L
aL677L
aL678L
aL679L
aL680L
aL681L
aL682L
aL683L
aL684L
aL685L
aL686L
aL687L
aL688L
aL689L
aL690L
aL691L
aL692L
aL693L
aL694L
aL695L
aL696L
aL697L
aL698L
aL699L
aL700L
aL701L
aL702L
aL703L
aL704L
aL705L
aL706L
aL707L
aL708L
aL709L
aL710L
aL711L
aL712L
aL713L
aL714L
aL715L
aL716L
aL717L
aL718L
aL719L
aL720L
aL721L
aL722L
aL723L
aL724L
aL725L
aL726L
aL727L
aL728L
aL729L
aL730L
aL731L
aL732L
aL733L
aL734L
aL735L
aL736L
aL737L
aL738L
aL739L
aL740L
aL741L
aL742L
aL743L
aL744L
aL745L
aL746L
aL747L
aL748L
aL749L
aL750L
aL751L
aL752L
aL753L
aL754L
aL755L
aL756L
aL757L
aL758L
aL759L
aL760L
aL761L
aL762L
aL763L
aL764L
aL765L
aL766L
aL767L
aL768L
aL769L
aL770L
aL771L
aL772L
aL773L
aL774L
aL775L
aL776L
aL777L
aL778L
aL779L
aL780L
aL781L
aL782L
aL783L
aL784L
aL785L
aL786L
aL787L
aL788L
aL789L
aL790L
aL791L
aL792L
aL793L
aL794L
aL795L
aL796L
aL797L
aL798L
aL799L
aL800L
aL801L
aL802L
aL803L
aL804L
aL805L
aL806L
aL807L
aL808L
aL809L
aL810L
aL811L
aL812L
aL813L
aL814L
aL815L
aL816L
aL817L
aL818L
aL819L
aL820L
aL821L
aL822L
aL823L
aL824L
aL825L
aL826L
aL827L
aL828L
aL829L
aL830L
aL831L
aL832L
aL833L
aL834L
aL835L
aL836L
aL837L
aL838L
aL839L
aL840L
aL841L
aL842L
aL843L
aL844L
aL845L
aL846L
aL847L
aL848L
aL849L
aL850L
aL851L
aL852L
aL853L
aL854L
aL855L
aL856L
aL857L
aL858L
aL859L
aL860L
aL861L
aL862L
aL863L
aL864L
aL865L
aL866L
aL867L
aL868L
aL869L
aL870L
aL871L
aL872L
aL873L
aL874L
aL875L
aL876L
aL877L
aL878L
aL879L
aL880L
aL881L
aL882L
aL883L
aL884L
aL885L
aL886L
aL887L
aL888L
aL889L
aL890L
aL891L
aL892L
aL893L
aL894L
aL895L
aL896L
aL897L
aL898L
aL899L
aL900L
aL901L
aL902L
aL903L
aL904L
aL905L
aL906L
aL907L
aL908L
aL909L
aL910L
aL911L
aL912L
aL913L
aL914L
aL915L
aL916L
aL917L
aL918L
aL919L
aL920L
aL921L
aL922L
aL923L
aL924L
aL925L
aL926L
aL927L
aL928L
aL929L
aL930L
aL931L
aL932L
aL933L
aL934L
aL935L
aL936L
aL937L
aL938L
aL939L
aL940L
aL941L
aL942L
aL943L
aL944L
aL945L
aL946L
aL947L
aL948L
aL949L
aL950L
aL951L
aL952L
aL953L
aL954L
aL955L
aL956L
aL957L
aL958L
aL959L
aL960L
aL961L
aL962L
aL963L
aL964L
aL965L
aL966L
aL967L
aL968L
aL969L
aL970L
aL971L
aL972L
aL973L
aL974L
aL975L
aL976L
aL977L
aL978L
aL979L
aL980L
aL981L
aL982L
aL983L
aL984L
aL985L
aL986L
aL987L
aL988L
aL989L
aL990L
aL991L
aL992L
aL993L
aL994L
aL995L
aL996L
aL997L
aL998L
aL999L
aL1000L
aL1001L
aL1002L
aL1003L
aL1004L
aL1005L
aL1006L
aL1007L
aL1008L
aL1009L
aL1010L
aL1011L
aL1012L
aL1013L
aL1014L
aL1015L
aL1016L
aL1017L
aL1018L
aL1019L
aL1020L
aL1021L
aL1022L
aL1023L
aL1024L
aL1025L
aL1026L
aL1027L
aL1028L
aL1029L
aL1030L
aL1031L
aL1032L
aL1033L
aL1034L
aL1035L
aL1036L
aL1037L
aL1038L
aL1039L
aL1040L
aL1041L
aL1042L
aL1043L
aL1044L
aL1045L
aL1046L
aL1047L
aL1048L
aL1049L
aL1050L
aL1051L
aL1052L
aL1053L
aL1054L
aL1055L
aL1056L
aL1057L
aL1058L
aL1059L
aL1060L
aL1061L
aL1062L
aL1063L
aL1064L
aL1065L
aL1066L
aL1067L
aL1068L
aL1069L
aL1070L
aL1071L
aL1072L
aL1073L
aL1074L
aL1075L
aL1076L
aL1077L
aL1078L
aL1079L
aL1080L
aL1081L
aL1082L
aL1083L
aL1084L
aL1085L
aL1086L
aL1087L
aL1088L
aL1089L
aL1090L
aL1091L
aL1092L
aL1093L
aL1094L
aL1095L
aL1096L
aL1097L
aL1098L
aL1099L
aL1100L
aL1101L
aL1102L
aL1103L
aL1104L
aL1105L
aL1106L
aL1107L
aL1108L
aL1109L
aL1110L
aL1111L
aL1112L
aL1113L
aL1114L
aL1115L
aL1116L
aL1117L
aL1118L
aL1119L
aL1120L
aL1121L
aL1122L
aL1123L
aL1124L
aL1125L
aL1126L
aL1127L
aL1128L
aL1129L
aL1130L
aL1131L
aL1132L
aL1133L
aL1134L
aL1135L
aL1136L
aL1137L
aL1138L
aL1139L
aL1140L
aL1141L
aL1142L
aL1143L
aL1144L
aL1145L
aL1146L
aL1147L
aL1148L
aL1149L
aL1150L
aL1151L
aL1152L
aL1153L
aL1154L
aL1155L
aL1156L
aL1157L
aL1158L
aL1159L
aL1160L
aL1161L
aL1162L
aL1163L
aL1164L
aL1165L
aL1166L
aL1167L
aL1168L
aL1169L
aL1170L
aL1171L
aL1172L
aL1173L
aL1174L
aL1175L
aL1176L
aL1177L
aL1178L
aL1179L
aL1180L
aL1181L
aL1182L
aL1183L
aL1184L
aL1185L
aL1186L
aL1187L
aL1188L
aL1189L
aL1190L
aL1191L
aL1192L
aL1193L
aL1194L
aL1195L
aL1196L
aL1197L
aL1198L
aL1199L
aL1200L
aL1201L
aL1202L
aL1203L
aL1204L
aL1205L
aL1206L
aL1207L
aL1208L
aL1209L
aL1210L
aL1211L
aL1212L
aL1213L
aL1214L
aL1215L
aL1216L
aL1217L
aL1218L
aL1219L
aL1220L
aL1221L
aL1222L
aL1223L
aL1224L
aL1225L
aL1226L
aL1227L
aL1228L
aL1229L
aL1230L
aL1231L
aL1232L
aL1233L
aL1234L
aL1235L
aL1236L
aL1237L
aL1238L
aL1239L
aL1240L
aL1241L
aL1242L
aL1243L
aL1244L
aL1245L
aL1246L
aL1247L
aL1248L
aL1249L
aL1250L
aL1251L
aL1252L
aL1253L
aL1254L
aL1255L
aL1256L
aL1257L
aL1258L
aL1259L
aL1260L
aL1261L
aL1262L
aL1263L
aL1264L
aL1265L
aL1266L
aL1267L
aL1268L
aL1269L
aL1270L
aL1271L
aL1272L
aL1273L
aL1274L
aL1275L
aL1276L
aL1277L
aL1278L
aL1279L
aL1280L
aL1281L
aL1282L
aL1283L
aL1284L
aL1285L
aL1286L
aL1287L
aL1288L
aL1289L
aL1290L
aL1291L
aL1292L
aL1293L
aL1294L
aL1295L
aL1296L
aL1297L
aL1298L
aL1299L
aL1300L
aL1301L
aL1302L
aL1303L
aL1304L
aL1305L
aL1306L
aL1307L
aL1308L
aL1309L
aL1310L
aL1311L
aL1312L
aL1313L
aL1314L
aL1315L
aL1316L
aL1317L
aL1318L
aL1319L
aL1320L
aL1321L
aL1322L
aL1323L
aL1324L
aL1325L
aL1326L
aL1327L
aL1328L
aL1329L
aL1330L
aL1331L
aL1332L
aL1333L
aL1334L
aL1335L
aL1336L
aL1337L
aL1338L
aL1339L
aL1340L
aL1341L
aL1342L
aL1343L
aL1344L
aL1345L
aL1346L
aL1347L
aL1348L
aL1349L
aL1350L
aL1351L
aL1352L
aL1353L
aL1354L
aL1355L
aL1356L
aL1357L
aL1358L
aL1359L
aL1360L
aL1361L
aL1362L
aL1363L
aL1364L
aL1365L
aL1366L
aL1367L
aL1368L
aL1369L
aL1370L
aL1371L
aL1372L
aL1373L
aL1374L
aL1375L
aL1376L
aL1377L
aL1378L
aL1379L
aL1380L
aL1381L
aL1382L
aL1383L
aL1384L
aL1385L
aL1386L
aL1387L
aL1388L
aL1389L
aL1390L
aL1391L
aL1392L
aL1393L
aL1394L
aL1395L
aL1396L
aL1397L
aL1398L
aL1399L
aL1400L
aL1401L
aL1402L
aL1403L
aL1404L
aL1405L
aL1406L
aL1407L
aL1408L
aL1409L
aL1410L
aL1411L
aL1412L
aL1413L
aL1414L
aL1415L
aL1416L
aL1417L
aL1418L
aL1419L
aL1420L
aL1421L
aL1422L
aL1423L
aL1424L
aL1425L
aL1426L
aL1427L
aL1428L
aL1429L
aL1430L
aL1431L
aL1432L
aL1433L
aL1434L
aL1435L
aL1436L
aL1437L
aL1438L
aL1439L
aL1440L
aL1441L
aL1442L
aL1443L
aL1444L
aL1445L
aL1446L
aL1447L
aL1448L
aL1449L
aL1450L
aL1451L
aL1452L
aL1453L
aL1454L
aL1455L
aL1456L
aL1457L
aL1458L
aL1459L
aL1460L
aL1461L
aL1462L
aL1463L
aL1464L
aL1465L
aL1466L
aL1467L
aL1468L
aL1469L
aL1470L
aL1471L
aL1472L
aL1473L
aL1474L
aL1475L
aL1476L
aL1477L
aL1478L
aL1479L
aL1480L
aL1481L
aL1482L
aL1483L
aL1484L
aL1485L
aL1486L
aL1487L
aL1488L
aL1489L
aL1490L
aL1491L
aL1492L
aL1493L
aL1494L
aL1495L
aL1496L
aL1497L
aL1498L
aL1499L
aL1500L
aL1501L
aL1502L
aL1503L
aL1504L
aL1505L
aL1506L
aL1507L
aL1508L
aL1509L
aL1510L
aL1511L
aL1512L
aL1513L
aL1514L
aL1515L
aL1516L
aL1517L
aL1518L
aL1519L
aL1520L
aL1521L
aL1522L
aL1523L
aL1524L
aL1525L
aL1526L
aL1527L
aL1528L
aL1529L
aL1530L
aL1531L
aL1532L
aL1533L
aL1534L
aL1535L
aL1536L
aL1537L
aL1538L
aL1539L
aL1540L
aL1541L
aL1542L
aL1543L
aL1544L
aL1545L
aL1546L
aL1547L
aL1548L
aL1549L
aL1550L
aL1551L
aL1552L
aL1553L
aL1554L
aL1555L
aL1556L
aL1557L
aL1558L
aL1559L
a.